Certificate:
    Data:
        Version: 1 (0x0)
        Serial Number: 1 (0x1)
    Signature Algorithm: sha256WithRSAEncryption
        Issuer: CN=PVZD-Test-CA
        Validity
            Not Before: Oct 24 17:39:12 2018 GMT
            Not After : May  7 17:39:12 2039 GMT
        Subject: CN=PVZD-Test-CA
        Subject Public Key Info:
            Public Key Algorithm: rsaEncryption
                Public-Key: (2048 bit)
                Modulus:
                    00:d0:99:ab:e7:60:e7:e1:90:46:65:d6:c7:51:1f:
                    49:02:ab:bf:69:c3:4e:52:27:0a:2e:36:a2:04:d0:
                    5c:96:43:35:a3:34:de:90:58:c4:47:6d:3d:84:5b:
                    ae:08:bc:0c:b6:a0:6c:23:a4:66:11:7e:26:d2:9c:
                    7f:db:d2:f8:4f:3a:f5:6d:e2:d0:59:78:a5:fe:4a:
                    d5:ab:1b:78:19:e9:50:b2:d2:1d:23:fd:94:8f:25:
                    b5:2d:1c:29:a2:cb:cb:98:28:28:46:27:47:32:87:
                    bf:2b:8f:5c:3d:31:eb:43:87:79:6b:72:fd:7f:e6:
                    b0:99:ce:94:43:b9:56:a6:54:02:91:c6:89:f8:2f:
                    0c:6d:06:74:84:fe:41:0a:11:d3:18:df:61:e4:c7:
                    fc:65:ee:2e:c9:af:bd:a4:ff:62:d2:63:0a:82:5b:
                    9a:02:fd:70:0e:6d:a6:b7:02:f8:ef:e8:19:81:9b:
                    c2:88:4b:f0:35:db:7c:23:3c:bd:bb:ef:3d:e4:71:
                    8c:f2:d8:0a:84:ec:a1:05:91:51:3c:de:ef:33:86:
                    47:2a:32:1f:02:c9:3b:e2:3d:bf:04:29:f7:ea:e9:
                    3b:b1:78:91:01:01:6d:e2:7f:46:77:1e:c1:10:50:
                    2e:8c:0c:26:40:7d:d8:ad:84:52:2f:59:2c:5e:58:
                    7d:e7
                Exponent: 65537 (0x10001)
    Signature Algorithm: sha256WithRSAEncryption
         83:ea:cd:bb:e3:21:a1:c2:bf:cd:66:3f:c3:82:8c:09:cf:8b:
         7d:91:18:81:00:8a:ec:7c:3f:62:e1:ee:be:3c:ed:1b:09:67:
         26:a6:c6:de:09:bf:9a:19:cf:37:0c:d7:4b:d7:a2:d8:73:dd:
         9e:10:43:3a:0f:e5:c7:93:64:86:1c:fa:50:e1:44:cb:e4:c2:
         38:06:74:1b:5e:6e:2b:39:68:cc:1f:57:ca:54:4d:7a:37:1a:
         f4:62:46:00:e4:52:c9:3c:9e:29:a1:c2:48:5a:a1:a0:b2:3c:
         70:3d:05:41:f4:b7:30:7d:8d:0a:53:fb:13:af:29:1a:9b:9d:
         31:99:10:83:65:2f:1a:60:e8:c9:cf:95:b9:9e:87:16:86:af:
         50:98:7e:f1:17:be:08:b4:6f:e2:df:de:c6:7a:9f:bd:a9:bf:
         77:af:6b:5e:3a:91:67:c6:1c:f2:4c:b1:4f:b5:42:cd:fb:c9:
         e4:bf:84:17:92:b9:87:89:fc:ee:0f:cb:2e:21:f2:70:99:d7:
         cb:cb:30:6d:40:1f:31:8b:52:88:24:02:43:ce:e6:8b:ab:a1:
         8e:ea:2d:53:ad:02:e4:3e:68:ff:b8:66:79:c2:7e:1c:ef:44:
         0f:66:8e:53:09:c5:63:c8:15:49:c0:04:ca:0a:f8:88:bb:2f:
         c8:3c:f0:67
-----BEGIN CERTIFICATE-----
MIICojCCAYoCAQEwDQYJKoZIhvcNAQELBQAwFzEVMBMGA1UEAwwMUFZaRC1UZXN0
LUNBMB4XDTE4MTAyNDE3MzkxMloXDTM5MDUwNzE3MzkxMlowFzEVMBMGA1UEAwwM
UFZaRC1UZXN0LUNBMIIBIjANBgkqhkiG9w0BAQEFAAOCAQ8AMIIBCgKCAQEA0Jmr
52Dn4ZBGZdbHUR9JAqu/acNOUicKLjaiBNBclkM1ozTekFjER209hFuuCLwMtqBs
I6RmEX4m0px/29L4Tzr1beLQWXil/krVqxt4GelQstIdI/2UjyW1LRwposvLmCgo
RidHMoe/K49cPTHrQ4d5a3L9f+awmc6UQ7lWplQCkcaJ+C8MbQZ0hP5BChHTGN9h
5Mf8Ze4uya+9pP9i0mMKgluaAv1wDm2mtwL47+gZgZvCiEvwNdt8Izy9u+895HGM
8tgKhOyhBZFRPN7vM4ZHKjIfAsk74j2/BCn36uk7sXiRAQFt4n9Gdx7BEFAujAwm
QH3YrYRSL1ksXlh95wIDAQABMA0GCSqGSIb3DQEBCwUAA4IBAQCD6s274yGhwr/N
Zj/DgowJz4t9kRiBAIrsfD9i4e6+PO0bCWcmpsbeCb+aGc83DNdL16LYc92eEEM6
D+XHk2SGHPpQ4UTL5MI4BnQbXm4rOWjMH1fKVE16Nxr0YkYA5FLJPJ4pocJIWqGg
sjxwPQVB9LcwfY0KU/sTrykam50xmRCDZS8aYOjJz5W5nocWhq9QmH7xF74ItG/i
397Gep+9qb93r2teOpFnxhzyTLFPtULN+8nkv4QXkrmHifzuD8suIfJwmdfLyzBt
QB8xi1KIJAJDzuaLq6GO6i1TrQLkPmj/uGZ5wn4c70QPZo5TCcVjyBVJwATKCviI
uy/IPPBn
-----END CERTIFICATE-----
