Certificate:
    Data:
        Version: 1 (0x0)
        Serial Number: 2 (0x2)
    Signature Algorithm: sha256WithRSAEncryption
        Issuer: CN=PVZD-Test-CA
        Validity
            Not Before: Oct 24 17:39:49 2018 GMT
            Not After : Oct 21 17:39:49 2028 GMT
        Subject: CN=idp.identinetics.com
        Subject Public Key Info:
            Public Key Algorithm: rsaEncryption
                Public-Key: (2048 bit)
                Modulus:
                    00:e0:aa:0a:b0:4f:87:ae:6f:6a:6c:1c:33:34:bb:
                    8b:ff:e5:da:22:80:f6:51:06:33:8e:c6:91:d9:f1:
                    f5:ae:7f:5a:e6:ef:8a:df:1b:39:e1:7a:22:43:12:
                    16:c9:7a:fe:84:38:4c:4c:41:c8:c5:1a:78:9f:8c:
                    c9:1b:1f:21:f6:13:f0:7d:70:c1:9c:70:8e:c0:6e:
                    31:19:4b:df:c4:a9:73:fb:51:79:fa:9f:30:06:ae:
                    52:90:27:cb:50:54:64:39:b2:f2:7a:46:d8:28:ea:
                    20:e4:60:f8:84:d5:05:0e:c7:54:b8:95:e5:0d:aa:
                    d6:af:42:6e:68:54:e0:ea:c9:8b:40:16:6f:6b:2f:
                    95:19:a2:8a:6a:5e:06:9c:bc:2b:7b:2f:e6:14:f0:
                    fb:6d:8c:10:b1:cf:3e:7a:df:c2:a1:58:5c:57:a4:
                    d9:c0:b1:10:ec:d0:3a:ab:8a:bf:00:95:8c:29:aa:
                    bb:e2:9d:7e:4e:9b:c5:25:c3:ea:de:3a:62:91:be:
                    48:b3:f4:a1:ca:47:d3:5d:f7:c1:07:e8:92:29:c4:
                    b0:4f:8b:4b:c9:f0:fa:0c:87:37:cb:87:dc:d5:dd:
                    dc:79:72:51:5a:ef:2f:a1:b6:bb:e5:87:de:6b:e1:
                    1e:c1:a0:e4:93:98:4e:00:01:44:d5:49:72:fe:8b:
                    46:17
                Exponent: 65537 (0x10001)
    Signature Algorithm: sha256WithRSAEncryption
         83:9d:4e:e6:19:20:c8:28:de:c4:01:8d:52:f5:38:53:99:ac:
         56:fc:ec:06:5f:e1:5f:bb:80:37:91:91:18:45:a4:d6:8b:23:
         ca:6d:5c:a9:54:55:f3:1f:fb:1c:6f:33:8e:6c:f9:d5:d2:ac:
         a1:d1:b7:04:62:ac:a1:5f:a2:a2:fa:95:02:ab:da:65:7f:08:
         0c:ee:97:f5:fc:f1:0b:ab:8b:23:27:8f:9c:45:c6:e2:35:58:
         67:10:ca:55:10:16:ea:3b:1d:97:70:6d:50:ce:ff:0b:4d:c9:
         78:27:71:c8:79:c9:f0:30:dc:c6:00:7e:99:55:26:29:d2:13:
         46:3b:b1:aa:9a:b9:19:d8:0d:cd:6e:a6:fe:9d:f4:b1:3f:5e:
         64:b7:77:1d:af:5d:94:dc:45:a5:86:9c:56:4a:d9:e7:27:90:
         c1:00:00:8f:6f:38:96:7c:30:c2:9d:55:e7:9c:97:a6:37:fc:
         5b:21:09:46:a6:2b:13:70:54:9d:9b:44:e7:d0:8d:7a:68:27:
         34:ad:5d:cb:00:41:41:c3:80:3a:bd:51:d5:ea:5e:89:57:98:
         bd:16:2d:51:11:54:6d:77:f1:bd:45:a1:59:ff:5c:44:f2:f5:
         1d:ee:c2:c9:22:f8:ce:01:2c:af:89:96:be:bc:f6:89:c1:ea:
         56:b9:c9:81
-----BEGIN CERTIFICATE-----
MIICqjCCAZICAQIwDQYJKoZIhvcNAQELBQAwFzEVMBMGA1UEAwwMUFZaRC1UZXN0
LUNBMB4XDTE4MTAyNDE3Mzk0OVoXDTI4MTAyMTE3Mzk0OVowHzEdMBsGA1UEAwwU
aWRwLmlkZW50aW5ldGljcy5jb20wggEiMA0GCSqGSIb3DQEBAQUAA4IBDwAwggEK
AoIBAQDgqgqwT4eub2psHDM0u4v/5doigPZRBjOOxpHZ8fWuf1rm74rfGznheiJD
EhbJev6EOExMQcjFGnifjMkbHyH2E/B9cMGccI7AbjEZS9/EqXP7UXn6nzAGrlKQ
J8tQVGQ5svJ6Rtgo6iDkYPiE1QUOx1S4leUNqtavQm5oVODqyYtAFm9rL5UZoopq
XgacvCt7L+YU8PttjBCxzz5638KhWFxXpNnAsRDs0Dqrir8AlYwpqrvinX5Om8Ul
w+reOmKRvkiz9KHKR9Nd98EH6JIpxLBPi0vJ8PoMhzfLh9zV3dx5clFa7y+htrvl
h95r4R7BoOSTmE4AAUTVSXL+i0YXAgMBAAEwDQYJKoZIhvcNAQELBQADggEBAIOd
TuYZIMgo3sQBjVL1OFOZrFb87AZf4V+7gDeRkRhFpNaLI8ptXKlUVfMf+xxvM45s
+dXSrKHRtwRirKFfoqL6lQKr2mV/CAzul/X88QuriyMnj5xFxuI1WGcQylUQFuo7
HZdwbVDO/wtNyXgncch5yfAw3MYAfplVJinSE0Y7saqauRnYDc1upv6d9LE/XmS3
dx2vXZTcRaWGnFZK2ecnkMEAAI9vOJZ8MMKdVeecl6Y3/FshCUamKxNwVJ2bROfQ
jXpoJzStXcsAQUHDgDq9UdXqXolXmL0WLVERVG138b1FoVn/XETy9R3uwski+M4B
LK+Jlr689onB6la5yYE=
-----END CERTIFICATE-----
