Certificate:
    Data:
        Version: 1 (0x0)
        Serial Number: 3 (0x3)
    Signature Algorithm: sha256WithRSAEncryption
        Issuer: CN=PVZD-Test-CA
        Validity
            Not Before: Oct 24 17:45:04 2018 GMT
            Not After : Oct 21 17:45:04 2028 GMT
        Subject: CN=idp.example.com
        Subject Public Key Info:
            Public Key Algorithm: rsaEncryption
                Public-Key: (2048 bit)
                Modulus:
                    00:d8:17:b0:a8:dd:03:9b:37:cb:03:45:44:d9:00:
                    ec:b2:fe:95:2d:09:d0:b7:19:d9:45:34:c9:4f:c4:
                    6b:3f:5d:37:45:25:44:84:11:d2:ee:5c:4c:33:f8:
                    fd:2a:12:67:67:ca:ef:18:c5:6f:96:45:24:97:98:
                    a8:e0:a9:8f:ad:12:16:83:bf:25:d7:49:3b:05:11:
                    91:c3:24:aa:b3:8b:7b:ce:c3:2e:8a:90:1e:89:10:
                    01:cc:e5:ea:42:91:64:bd:40:73:c2:3c:0f:ea:98:
                    0a:66:b3:66:ad:1d:6c:16:1f:4d:eb:63:8a:39:8a:
                    d6:73:50:31:ba:d6:d1:28:bc:8d:fc:ff:02:2b:38:
                    02:49:80:f2:3c:d6:57:bf:2f:da:75:c6:31:52:79:
                    7e:b0:e3:8a:e9:8d:0d:12:3c:c9:f6:95:e5:2f:bd:
                    9c:9b:da:32:00:65:63:3d:4a:19:f0:74:f1:91:16:
                    93:37:5f:e7:33:67:b1:43:b1:14:f8:9a:da:94:10:
                    5e:c6:61:f0:8f:ef:32:6c:00:5e:f7:55:4a:17:17:
                    ff:3c:7e:61:2b:6f:5b:68:86:84:3d:a2:e7:a8:a5:
                    3b:0b:74:2b:3d:00:3a:17:65:2c:8d:8c:c6:77:0b:
                    87:67:bd:d7:1e:c5:06:30:f3:21:89:49:b3:3d:2c:
                    3f:1f
                Exponent: 65537 (0x10001)
    Signature Algorithm: sha256WithRSAEncryption
         96:cf:54:d0:90:c7:96:d7:47:fa:91:b1:93:29:e1:91:61:39:
         ff:20:7d:be:ab:26:4e:23:1f:8c:9b:2e:b2:b6:70:0b:b2:3b:
         2f:9d:77:0e:7c:18:d2:15:23:ba:a6:41:1f:d0:12:cf:9b:77:
         4b:6f:03:03:ed:52:d3:f9:f7:56:a8:95:e2:4d:33:06:db:ab:
         0b:26:04:ea:06:d6:10:f3:1a:3b:78:cb:fa:fc:15:80:f9:7e:
         be:2f:1f:1f:e1:5f:e4:2e:2b:35:57:63:a7:83:6d:41:8f:22:
         75:a5:d8:f1:db:c4:44:34:05:83:a9:d7:12:16:3b:c9:b2:4d:
         7c:e5:a4:19:0c:91:54:3f:f6:29:9a:13:e7:15:07:55:7f:99:
         9f:a8:79:22:0f:26:12:0b:3e:e6:e3:ea:57:7e:18:13:aa:dd:
         f9:61:93:8f:9a:64:45:35:fb:f2:7e:47:ea:a3:fc:23:3e:2d:
         ea:ae:7e:5f:13:57:11:a1:d8:29:c5:d8:4e:d1:a7:f7:c0:62:
         62:82:de:42:32:03:40:6b:ba:df:41:b1:e3:93:27:59:db:97:
         dc:2a:ef:4d:a7:4e:53:01:98:3b:61:2b:33:25:03:e2:a2:29:
         41:35:25:b4:53:50:e7:95:9d:a0:3e:f6:5b:6e:d1:c7:0c:c1:
         c1:47:ea:49
-----BEGIN CERTIFICATE-----
MIICpTCCAY0CAQMwDQYJKoZIhvcNAQELBQAwFzEVMBMGA1UEAwwMUFZaRC1UZXN0
LUNBMB4XDTE4MTAyNDE3NDUwNFoXDTI4MTAyMTE3NDUwNFowGjEYMBYGA1UEAwwP
aWRwLmV4YW1wbGUuY29tMIIBIjANBgkqhkiG9w0BAQEFAAOCAQ8AMIIBCgKCAQEA
2BewqN0DmzfLA0VE2QDssv6VLQnQtxnZRTTJT8RrP103RSVEhBHS7lxMM/j9KhJn
Z8rvGMVvlkUkl5io4KmPrRIWg78l10k7BRGRwySqs4t7zsMuipAeiRABzOXqQpFk
vUBzwjwP6pgKZrNmrR1sFh9N62OKOYrWc1AxutbRKLyN/P8CKzgCSYDyPNZXvy/a
dcYxUnl+sOOK6Y0NEjzJ9pXlL72cm9oyAGVjPUoZ8HTxkRaTN1/nM2exQ7EU+Jra
lBBexmHwj+8ybABe91VKFxf/PH5hK29baIaEPaLnqKU7C3QrPQA6F2UsjYzGdwuH
Z73XHsUGMPMhiUmzPSw/HwIDAQABMA0GCSqGSIb3DQEBCwUAA4IBAQCWz1TQkMeW
10f6kbGTKeGRYTn/IH2+qyZOIx+Mmy6ytnALsjsvnXcOfBjSFSO6pkEf0BLPm3dL
bwMD7VLT+fdWqJXiTTMG26sLJgTqBtYQ8xo7eMv6/BWA+X6+Lx8f4V/kLis1V2On
g21BjyJ1pdjx28RENAWDqdcSFjvJsk185aQZDJFUP/YpmhPnFQdVf5mfqHkiDyYS
Cz7m4+pXfhgTqt35YZOPmmRFNfvyfkfqo/wjPi3qrn5fE1cRodgpxdhO0af3wGJi
gt5CMgNAa7rfQbHjkydZ25fcKu9Np05TAZg7YSszJQPioilBNSW0U1DnlZ2gPvZb
btHHDMHBR+pJ
-----END CERTIFICATE-----
