Certificate:
    Data:
        Version: 1 (0x0)
        Serial Number: 5 (0x5)
    Signature Algorithm: sha256WithRSAEncryption
        Issuer: CN=PVZD-Test-CA
        Validity
            Not Before: Oct 30 22:41:03 2018 GMT
            Not After : Oct 27 22:41:03 2028 GMT
        Subject: CN=gondor.wien.gv.at
        Subject Public Key Info:
            Public Key Algorithm: rsaEncryption
                Public-Key: (2048 bit)
                Modulus:
                    00:d3:cc:b8:52:fd:63:97:22:43:3d:56:ea:38:55:
                    2b:a2:70:c0:aa:2c:a3:97:6a:cd:d6:4a:b5:6e:4e:
                    68:5b:a3:70:c0:3b:76:46:8b:67:87:85:fb:33:08:
                    4e:1b:c1:a3:ad:5b:93:2a:ea:89:01:33:fb:84:c0:
                    dc:ce:8a:55:29:42:62:34:26:fe:9e:f4:36:4b:a5:
                    19:d6:ea:fd:26:e2:7b:07:20:db:d8:42:52:76:80:
                    dc:24:5d:f7:b7:0b:44:70:10:09:26:55:31:34:0e:
                    ad:c2:6a:2f:ec:04:8f:b1:56:ea:6f:c1:df:44:f3:
                    e5:8b:e7:9c:3d:6b:58:fd:f7:01:77:a1:08:41:b2:
                    cc:23:7c:33:92:14:33:a7:64:19:e3:5a:17:5a:95:
                    68:71:22:db:c9:a6:d9:02:4e:c7:fa:f1:58:ed:c3:
                    97:e3:16:4e:02:fb:d0:fb:c2:21:5b:f7:e6:ed:61:
                    87:d3:d7:df:4c:f4:24:f6:e0:b2:f6:d4:65:73:5d:
                    75:ec:e9:16:6f:4e:9c:05:47:39:ee:3f:f6:6d:aa:
                    ae:b4:36:3e:fd:7d:c1:93:34:67:94:11:14:9f:b0:
                    db:9b:c9:56:e3:05:f3:6f:9e:89:bc:b8:a2:2d:bc:
                    a0:9a:8e:14:83:c4:fc:f3:7a:48:40:fc:ab:0e:fd:
                    dc:ef
                Exponent: 65537 (0x10001)
    Signature Algorithm: sha256WithRSAEncryption
         80:91:d6:52:05:33:db:04:88:9b:7d:51:1c:14:07:64:6d:6b:
         e7:2a:02:92:fd:98:60:b6:b9:11:d4:19:41:ec:b8:23:80:fa:
         4b:76:03:81:ee:1b:d2:85:fc:52:77:b2:46:9d:7d:09:e6:70:
         01:64:b5:78:d8:56:60:f2:9f:ae:f9:69:9e:39:61:b3:d1:b5:
         c9:f9:61:9e:b6:fc:c0:be:18:0b:91:52:28:36:7f:0f:9d:19:
         95:32:cf:52:66:6e:63:17:4c:51:82:a2:d1:17:ba:e0:7e:15:
         0a:49:91:02:d2:57:a8:3b:37:4c:79:53:1a:ea:02:bf:fe:dc:
         75:9b:3e:0e:ac:c9:a9:9c:d6:f6:27:ba:de:67:9d:94:86:90:
         f6:1d:36:59:a4:e3:a6:0d:3d:6f:da:6f:3a:e4:18:8d:3a:82:
         99:e3:f7:2e:cf:d8:7c:99:7c:60:0e:f6:e3:75:a4:91:5f:2b:
         29:d4:e0:5c:04:af:35:af:f7:58:9a:4b:d0:b5:50:14:9b:a7:
         7d:5b:10:a1:6f:cd:44:18:64:7c:66:04:cc:44:96:9a:a8:42:
         bf:a9:72:7f:f4:f6:1b:39:bd:9b:24:75:53:bf:5a:05:df:a1:
         ef:02:5e:32:1e:8b:ae:9d:96:77:df:e9:4a:e4:6e:21:cb:30:
         15:60:cd:09
-----BEGIN CERTIFICATE-----
MIICpzCCAY8CAQUwDQYJKoZIhvcNAQELBQAwFzEVMBMGA1UEAwwMUFZaRC1UZXN0
LUNBMB4XDTE4MTAzMDIyNDEwM1oXDTI4MTAyNzIyNDEwM1owHDEaMBgGA1UEAwwR
Z29uZG9yLndpZW4uZ3YuYXQwggEiMA0GCSqGSIb3DQEBAQUAA4IBDwAwggEKAoIB
AQDTzLhS/WOXIkM9Vuo4VSuicMCqLKOXas3WSrVuTmhbo3DAO3ZGi2eHhfszCE4b
waOtW5Mq6okBM/uEwNzOilUpQmI0Jv6e9DZLpRnW6v0m4nsHINvYQlJ2gNwkXfe3
C0RwEAkmVTE0Dq3Cai/sBI+xVupvwd9E8+WL55w9a1j99wF3oQhBsswjfDOSFDOn
ZBnjWhdalWhxItvJptkCTsf68Vjtw5fjFk4C+9D7wiFb9+btYYfT199M9CT24LL2
1GVzXXXs6RZvTpwFRznuP/Ztqq60Nj79fcGTNGeUERSfsNubyVbjBfNvnom8uKIt
vKCajhSDxPzzekhA/KsO/dzvAgMBAAEwDQYJKoZIhvcNAQELBQADggEBAICR1lIF
M9sEiJt9URwUB2Rta+cqApL9mGC2uRHUGUHsuCOA+kt2A4HuG9KF/FJ3skadfQnm
cAFktXjYVmDyn675aZ45YbPRtcn5YZ62/MC+GAuRUig2fw+dGZUyz1JmbmMXTFGC
otEXuuB+FQpJkQLSV6g7N0x5UxrqAr/+3HWbPg6syamc1vYnut5nnZSGkPYdNlmk
46YNPW/abzrkGI06gpnj9y7P2HyZfGAO9uN1pJFfKynU4FwErzWv91iaS9C1UBSb
p31bEKFvzUQYZHxmBMxElpqoQr+pcn/09hs5vZskdVO/WgXfoe8CXjIei66dlnff
6UrkbiHLMBVgzQk=
-----END CERTIFICATE-----
