Certificate:
    Data:
        Version: 1 (0x0)
        Serial Number: 6 (0x6)
    Signature Algorithm: sha256WithRSAEncryption
        Issuer: CN=PVZD-Test-CA
        Validity
            Not Before: Oct 30 22:43:51 2018 GMT
            Not After : Oct 27 22:43:51 2028 GMT
        Subject: CN=extranet.unido.org
        Subject Public Key Info:
            Public Key Algorithm: rsaEncryption
                Public-Key: (2048 bit)
                Modulus:
                    00:bc:70:42:32:8d:a9:d9:f8:45:a3:fe:48:97:af:
                    9f:a6:17:9d:8f:a9:8f:2b:b7:fa:32:ab:75:b1:ce:
                    a6:a6:8b:59:6c:e4:81:c4:1c:36:0f:24:43:fc:e9:
                    05:60:d3:c5:6c:8e:2d:a3:2f:81:7f:28:79:ba:57:
                    0c:28:b4:16:e0:10:63:a2:69:4e:b5:ae:69:a6:cb:
                    73:03:f2:89:ae:fb:fa:a5:d1:7e:44:fe:82:f6:bd:
                    5b:a3:af:b8:2b:60:53:dd:cb:fc:44:42:20:44:b1:
                    dd:f9:ef:db:10:1c:1b:33:0d:e1:f2:c8:c9:3a:1f:
                    07:e3:80:0c:a3:c1:e1:8c:fd:56:df:dc:11:fd:d4:
                    20:69:3c:a7:34:4c:00:b7:20:8b:ab:8c:fa:51:39:
                    ce:50:df:76:49:cd:95:d4:cd:24:f8:36:fd:fc:87:
                    a4:aa:93:e4:d8:7d:bc:e6:67:1b:9e:2d:4b:0a:33:
                    e1:9d:ff:70:f8:d5:9c:b1:ce:03:85:57:1c:9c:c3:
                    60:64:7d:28:85:4a:b7:11:52:00:63:fa:bf:22:90:
                    38:56:d4:2a:85:d8:17:de:cc:5e:9a:00:e6:53:c2:
                    22:7b:5f:30:1d:d7:7b:b0:eb:35:b9:9c:a2:26:13:
                    77:59:f1:f4:37:58:9b:78:da:ff:b8:d6:f0:a2:de:
                    ab:d7
                Exponent: 65537 (0x10001)
    Signature Algorithm: sha256WithRSAEncryption
         1d:a0:d8:b6:90:72:d7:86:65:3e:0e:22:28:3e:e0:4f:e5:20:
         57:0f:51:62:c7:7c:59:40:8a:4a:5f:db:86:56:64:b4:59:c2:
         96:a4:0b:42:b3:95:a1:0b:ee:3f:d6:5f:9b:d7:bf:41:12:01:
         0e:99:73:25:e5:8f:5b:11:dc:8d:ca:c3:b1:cd:c2:35:a8:b4:
         3b:37:b1:6b:b7:21:17:e1:6a:50:42:a7:35:b5:73:19:c0:c9:
         f8:dc:9b:89:de:cd:4a:fa:29:fb:da:b6:62:f1:45:dd:80:00:
         97:6c:99:7a:0d:65:bf:64:c3:1b:bc:e9:38:c1:c6:5a:29:fa:
         b4:7f:42:a5:de:a3:d6:08:c4:98:a7:5c:b9:e1:26:fe:cf:fb:
         37:34:a3:ae:34:67:5a:49:13:c5:27:06:df:77:72:bb:4d:e7:
         c7:0d:57:43:2e:a0:2a:a5:f4:ac:0f:1f:e8:bf:dd:81:75:dd:
         98:1b:9f:62:ed:29:b8:04:81:4a:fe:08:e7:c9:4e:15:d4:9f:
         c4:41:8f:94:49:40:8e:ba:6b:a2:a9:63:8b:c9:fb:8c:72:d2:
         1a:47:bf:fc:16:e4:8a:a4:17:9d:88:0c:1f:c6:29:c7:b3:57:
         cd:dc:d4:a0:b3:be:ea:1a:0d:87:b9:53:94:ba:87:82:35:a4:
         ee:ba:84:72
-----BEGIN CERTIFICATE-----
MIICqDCCAZACAQYwDQYJKoZIhvcNAQELBQAwFzEVMBMGA1UEAwwMUFZaRC1UZXN0
LUNBMB4XDTE4MTAzMDIyNDM1MVoXDTI4MTAyNzIyNDM1MVowHTEbMBkGA1UEAwwS
ZXh0cmFuZXQudW5pZG8ub3JnMIIBIjANBgkqhkiG9w0BAQEFAAOCAQ8AMIIBCgKC
AQEAvHBCMo2p2fhFo/5Il6+fphedj6mPK7f6Mqt1sc6mpotZbOSBxBw2DyRD/OkF
YNPFbI4toy+Bfyh5ulcMKLQW4BBjomlOta5ppstzA/KJrvv6pdF+RP6C9r1bo6+4
K2BT3cv8REIgRLHd+e/bEBwbMw3h8sjJOh8H44AMo8HhjP1W39wR/dQgaTynNEwA
tyCLq4z6UTnOUN92Sc2V1M0k+Db9/IekqpPk2H285mcbni1LCjPhnf9w+NWcsc4D
hVccnMNgZH0ohUq3EVIAY/q/IpA4VtQqhdgX3sxemgDmU8Iie18wHdd7sOs1uZyi
JhN3WfH0N1ibeNr/uNbwot6r1wIDAQABMA0GCSqGSIb3DQEBCwUAA4IBAQAdoNi2
kHLXhmU+DiIoPuBP5SBXD1Fix3xZQIpKX9uGVmS0WcKWpAtCs5WhC+4/1l+b179B
EgEOmXMl5Y9bEdyNysOxzcI1qLQ7N7FrtyEX4WpQQqc1tXMZwMn43JuJ3s1K+in7
2rZi8UXdgACXbJl6DWW/ZMMbvOk4wcZaKfq0f0Kl3qPWCMSYp1y54Sb+z/s3NKOu
NGdaSRPFJwbfd3K7TefHDVdDLqAqpfSsDx/ov92Bdd2YG59i7Sm4BIFK/gjnyU4V
1J/EQY+USUCOumuiqWOLyfuMctIaR7/8FuSKpBediAwfxinHs1fN3NSgs77qGg2H
uVOUuoeCNaTuuoRy
-----END CERTIFICATE-----
