Certificate:
    Data:
        Version: 1 (0x0)
        Serial Number: 8 (0x8)
    Signature Algorithm: sha256WithRSAEncryption
        Issuer: CN=PVZD-Test-CA
        Validity
            Not Before: Nov 25 16:26:27 2018 GMT
            Not After : Nov 22 16:26:27 2028 GMT
        Subject: CN=idp6.example.org
        Subject Public Key Info:
            Public Key Algorithm: rsaEncryption
                Public-Key: (2048 bit)
                Modulus:
                    00:be:07:17:c9:18:1f:b4:57:f5:33:84:bd:8e:71:
                    38:6c:20:24:59:66:44:ff:51:4e:d3:ac:f5:59:00:
                    3e:84:d0:95:7c:bc:a4:e5:3a:b2:4c:ae:6d:1c:d2:
                    36:84:ee:e3:1b:f5:f6:78:92:1b:98:36:26:2d:c8:
                    5a:66:ae:75:85:0c:0e:ff:81:36:ae:72:ee:06:23:
                    61:af:e6:5b:b2:19:6f:ee:d0:93:52:c5:f3:d8:96:
                    13:23:15:35:d3:bb:8e:7e:65:c2:55:3f:09:02:d1:
                    36:6c:79:1c:ae:33:e5:af:51:83:12:6c:f8:3f:0b:
                    f1:0a:e1:e3:78:db:54:58:c2:9e:7d:1a:23:f9:10:
                    3e:61:1d:88:34:b6:a9:1d:cf:d5:21:fe:90:ea:94:
                    77:8d:c6:05:40:3a:c0:95:bc:17:9d:d6:18:37:0b:
                    b1:eb:ee:d7:79:99:9e:3c:6e:51:a9:54:f3:20:c1:
                    9e:5f:d7:3e:79:df:46:f9:e0:d3:ee:48:a5:65:e2:
                    6f:83:36:a4:00:d7:75:b8:b5:d5:ee:80:66:fc:3a:
                    54:d8:1f:5b:fe:5f:4a:60:65:f6:de:8e:59:02:17:
                    a4:c9:52:23:c1:9a:a4:0d:18:04:5e:1e:d3:b9:f2:
                    5b:bf:63:c0:e8:f3:14:b6:90:54:22:18:51:52:f6:
                    35:21
                Exponent: 65537 (0x10001)
    Signature Algorithm: sha256WithRSAEncryption
         73:d9:f7:a4:f2:06:3c:5d:c9:7a:8e:b1:f1:e7:9b:a5:37:a7:
         6e:5a:b0:66:a8:3f:95:3f:f9:31:7b:f0:d1:2c:9c:53:99:1f:
         12:88:15:48:ac:65:87:95:e3:dc:07:96:3a:e4:90:59:62:79:
         a9:23:b7:7a:bf:9f:2a:58:44:c1:c3:95:8f:d8:e6:da:61:6e:
         c4:fa:9b:58:bd:e2:bf:0f:11:32:67:4a:b8:4c:18:0d:1f:1b:
         3a:59:06:d1:ac:39:ed:c4:71:48:92:85:b9:d4:eb:5a:cc:51:
         bc:69:98:9a:6d:7a:f8:b3:29:18:7c:15:88:4d:47:91:c7:09:
         91:95:da:7c:ca:31:9f:41:de:f8:3c:35:72:b2:96:83:9a:4b:
         2d:34:8e:31:0d:54:5b:b9:67:8e:8f:01:df:22:0c:0c:13:5b:
         57:bd:14:3f:a0:02:b3:a8:f9:e7:2f:d1:0e:d4:9f:7e:ff:3b:
         c4:d0:d3:5f:e7:97:d1:d5:b3:ba:82:fb:71:56:84:df:71:af:
         f8:49:23:25:00:a1:dc:5c:ef:b0:0c:d8:89:f9:ea:03:74:12:
         f7:10:48:c5:dc:22:e1:f5:5c:68:5d:11:ad:de:77:ac:ca:82:
         7f:a5:31:c8:cb:97:d3:f1:72:b8:36:ee:83:17:1e:8a:b2:79:
         d6:85:c9:d2
-----BEGIN CERTIFICATE-----
MIICpjCCAY4CAQgwDQYJKoZIhvcNAQELBQAwFzEVMBMGA1UEAwwMUFZaRC1UZXN0
LUNBMB4XDTE4MTEyNTE2MjYyN1oXDTI4MTEyMjE2MjYyN1owGzEZMBcGA1UEAwwQ
aWRwNi5leGFtcGxlLm9yZzCCASIwDQYJKoZIhvcNAQEBBQADggEPADCCAQoCggEB
AL4HF8kYH7RX9TOEvY5xOGwgJFlmRP9RTtOs9VkAPoTQlXy8pOU6skyubRzSNoTu
4xv19niSG5g2Ji3IWmaudYUMDv+BNq5y7gYjYa/mW7IZb+7Qk1LF89iWEyMVNdO7
jn5lwlU/CQLRNmx5HK4z5a9RgxJs+D8L8Qrh43jbVFjCnn0aI/kQPmEdiDS2qR3P
1SH+kOqUd43GBUA6wJW8F53WGDcLsevu13mZnjxuUalU8yDBnl/XPnnfRvng0+5I
pWXib4M2pADXdbi11e6AZvw6VNgfW/5fSmBl9t6OWQIXpMlSI8GapA0YBF4e07ny
W79jwOjzFLaQVCIYUVL2NSECAwEAATANBgkqhkiG9w0BAQsFAAOCAQEAc9n3pPIG
PF3Jeo6x8eebpTenblqwZqg/lT/5MXvw0SycU5kfEogVSKxlh5Xj3AeWOuSQWWJ5
qSO3er+fKlhEwcOVj9jm2mFuxPqbWL3ivw8RMmdKuEwYDR8bOlkG0aw57cRxSJKF
udTrWsxRvGmYmm16+LMpGHwViE1HkccJkZXafMoxn0He+Dw1crKWg5pLLTSOMQ1U
W7lnjo8B3yIMDBNbV70UP6ACs6j55y/RDtSffv87xNDTX+eX0dWzuoL7cVaE33Gv
+EkjJQCh3FzvsAzYifnqA3QS9xBIxdwi4fVcaF0Rrd53rMqCf6UxyMuX0/FyuDbu
gxceirJ51oXJ0g==
-----END CERTIFICATE-----
