Certificate:
    Data:
        Version: 1 (0x0)
        Serial Number: 9 (0x9)
    Signature Algorithm: sha256WithRSAEncryption
        Issuer: CN=PVZD-Test-CA
        Validity
            Not Before: Nov 25 16:39:07 2018 GMT
            Not After : Nov 22 16:39:07 2028 GMT
        Subject: CN=idp10.example.org
        Subject Public Key Info:
            Public Key Algorithm: rsaEncryption
                Public-Key: (2048 bit)
                Modulus:
                    00:92:6c:f6:d0:9b:55:8e:74:64:f6:ab:b1:a2:be:
                    f6:d0:3a:2e:05:18:c7:fb:36:a0:5f:c0:5c:01:9f:
                    42:03:a9:de:cc:bf:1d:38:b0:e0:2c:74:15:58:d8:
                    03:56:b0:87:9f:db:5d:05:46:82:f7:c3:0a:30:ba:
                    26:01:b7:6b:58:0d:69:7f:82:4d:9a:35:7b:0f:ec:
                    ec:6f:9f:e7:b0:f4:ef:3c:13:0f:cb:7b:1a:29:fe:
                    16:54:09:1f:e8:fa:76:24:54:a5:eb:3d:29:3b:ae:
                    c8:d5:80:a0:e2:e0:a3:29:04:96:f7:2f:14:b9:89:
                    34:6a:a1:01:48:34:37:e3:a2:1c:53:d2:fb:67:2c:
                    cf:60:e1:c4:7a:89:9d:60:bc:9b:1d:df:d0:11:cb:
                    0c:86:a5:18:ae:fa:00:1f:a3:27:77:16:0a:8d:80:
                    49:de:02:20:5a:9b:1c:c3:e1:0b:84:b9:b0:92:88:
                    54:51:bb:34:d6:37:5a:af:9d:0f:5c:cb:d9:25:52:
                    6d:f7:08:78:95:93:c8:f5:c5:be:a7:44:e1:ef:a0:
                    26:b3:5b:ee:8d:1f:85:01:73:c8:a8:8e:4f:73:a2:
                    ed:27:78:a1:ff:91:ec:c2:81:e9:62:e6:fe:f7:2d:
                    bb:c3:0e:fc:1e:8a:12:dd:fd:f7:d1:3d:1f:a9:0d:
                    31:c3
                Exponent: 65537 (0x10001)
    Signature Algorithm: sha256WithRSAEncryption
         4b:9b:fe:4a:67:78:fe:15:59:45:00:ce:21:7f:1c:d4:75:f1:
         44:1b:74:5f:26:21:a6:34:51:a2:e5:24:86:57:4f:9d:75:d8:
         a2:73:d0:fe:5b:99:79:52:3b:ce:09:8c:52:44:3a:d0:57:03:
         74:8a:42:87:2c:66:a4:b1:28:e1:26:84:f3:01:8d:9b:4b:41:
         f9:fa:de:f2:5a:bf:25:70:6c:cd:a2:72:0e:d2:a7:00:93:c5:
         7a:88:86:74:3e:96:d1:8d:d3:38:1b:e5:b3:ba:88:26:71:38:
         92:c1:2a:90:54:ca:67:79:f6:e6:07:28:66:a1:86:8a:f7:2a:
         61:dd:2b:ca:57:47:32:49:06:05:90:bc:70:ed:25:b7:49:63:
         98:15:b5:62:29:b6:3a:60:6e:a1:34:9d:89:8e:d4:ab:fc:55:
         91:ee:e5:19:fc:ed:c0:49:a3:cd:c7:51:e0:4b:18:ee:c6:f4:
         b0:fd:bb:e1:b7:dc:6c:df:db:44:e3:e9:ad:20:b9:1f:8d:9a:
         c0:39:5f:2c:93:65:2b:e1:b8:99:b2:80:2a:e5:26:f2:c4:50:
         ee:b7:e6:ad:0d:e9:22:96:bc:fe:d2:07:89:85:72:c9:f0:64:
         a1:9f:e1:b3:f3:3c:b4:c4:81:3f:4d:30:16:00:63:65:98:cf:
         fa:df:30:0b
-----BEGIN CERTIFICATE-----
MIICpzCCAY8CAQkwDQYJKoZIhvcNAQELBQAwFzEVMBMGA1UEAwwMUFZaRC1UZXN0
LUNBMB4XDTE4MTEyNTE2MzkwN1oXDTI4MTEyMjE2MzkwN1owHDEaMBgGA1UEAwwR
aWRwMTAuZXhhbXBsZS5vcmcwggEiMA0GCSqGSIb3DQEBAQUAA4IBDwAwggEKAoIB
AQCSbPbQm1WOdGT2q7GivvbQOi4FGMf7NqBfwFwBn0IDqd7Mvx04sOAsdBVY2ANW
sIef210FRoL3wwowuiYBt2tYDWl/gk2aNXsP7Oxvn+ew9O88Ew/Lexop/hZUCR/o
+nYkVKXrPSk7rsjVgKDi4KMpBJb3LxS5iTRqoQFINDfjohxT0vtnLM9g4cR6iZ1g
vJsd39ARywyGpRiu+gAfoyd3FgqNgEneAiBamxzD4QuEubCSiFRRuzTWN1qvnQ9c
y9klUm33CHiVk8j1xb6nROHvoCazW+6NH4UBc8iojk9zou0neKH/kezCgeli5v73
LbvDDvweihLd/ffRPR+pDTHDAgMBAAEwDQYJKoZIhvcNAQELBQADggEBAEub/kpn
eP4VWUUAziF/HNR18UQbdF8mIaY0UaLlJIZXT5112KJz0P5bmXlSO84JjFJEOtBX
A3SKQocsZqSxKOEmhPMBjZtLQfn63vJavyVwbM2icg7SpwCTxXqIhnQ+ltGN0zgb
5bO6iCZxOJLBKpBUymd59uYHKGahhor3KmHdK8pXRzJJBgWQvHDtJbdJY5gVtWIp
tjpgbqE0nYmO1Kv8VZHu5Rn87cBJo83HUeBLGO7G9LD9u+G33Gzf20Tj6a0guR+N
msA5XyyTZSvhuJmygCrlJvLEUO635q0N6SKWvP7SB4mFcsnwZKGf4bPzPLTEgT9N
MBYAY2WYz/rfMAs=
-----END CERTIFICATE-----
