Certificate:
    Data:
        Version: 1 (0x0)
        Serial Number: 12 (0xc)
    Signature Algorithm: sha256WithRSAEncryption
        Issuer: CN=PVZD-Test-CA
        Validity
            Not Before: Nov 30 19:38:32 2018 GMT
            Not After : Jun 13 19:38:32 2039 GMT
        Subject: CN=idp22.identinetics.com
        Subject Public Key Info:
            Public Key Algorithm: rsaEncryption
                Public-Key: (2048 bit)
                Modulus:
                    00:b9:5d:b4:49:14:f8:44:43:d9:77:24:30:0b:2b:
                    7d:6b:42:ed:1a:12:ef:0a:25:4d:0f:b1:94:0a:c7:
                    22:3f:3f:81:c7:23:b2:05:6e:db:dc:44:ab:61:f5:
                    77:4b:99:57:59:20:96:78:83:2f:f1:ef:03:24:34:
                    3e:4b:63:f7:ac:be:a9:33:8a:32:4d:04:6b:9b:5e:
                    a4:26:58:16:d7:9d:40:c0:94:57:34:d8:60:27:42:
                    c3:59:32:3c:96:71:21:20:32:d4:c0:b2:4c:bc:8c:
                    e0:0e:ef:0f:30:95:a2:0d:5e:9a:d7:eb:65:c6:21:
                    a3:49:63:6a:a1:32:63:17:4b:99:b4:55:e6:4b:fb:
                    3e:f7:e6:78:56:eb:96:c8:af:e9:59:89:f1:e1:9f:
                    d0:df:0f:43:d1:7e:32:46:8a:3c:f4:ad:6e:7b:47:
                    d2:ed:ee:11:55:fc:58:48:f8:19:49:51:77:13:7b:
                    c8:72:d2:57:6c:7e:ca:b0:98:4e:65:c9:88:f0:76:
                    ab:b5:66:68:43:3a:9b:fd:4e:3d:ef:1b:9b:32:47:
                    2f:7d:2c:e1:18:23:d5:64:ed:97:4d:fc:5e:af:e7:
                    bc:07:7d:18:d8:f3:17:f3:55:b2:8f:5a:44:88:ce:
                    59:74:6f:e7:f9:0e:90:3a:3e:8d:93:ad:bf:8d:5b:
                    cc:b7
                Exponent: 65537 (0x10001)
    Signature Algorithm: sha256WithRSAEncryption
         aa:bb:b4:5d:11:93:57:05:21:44:92:f6:51:05:43:5c:0f:ec:
         b9:41:81:55:dc:fc:89:df:c7:f3:70:1f:82:f4:8c:56:e3:e5:
         a9:8e:f4:5d:d5:44:5d:9a:4d:d7:7e:a4:73:c1:28:2f:34:98:
         58:23:b8:05:27:2d:32:ff:3b:9e:81:9d:f2:52:f5:1d:20:0c:
         b7:58:89:fd:7a:e3:c3:90:1a:f3:f9:dd:13:f3:03:5d:43:3e:
         7e:a8:0c:b8:ce:81:64:a0:40:ba:2f:ca:fb:91:36:f2:8f:1b:
         db:38:69:68:a8:92:54:4f:27:56:34:7a:f1:d6:87:5b:4b:d4:
         a1:19:53:ef:05:8b:70:1a:d6:85:e1:2e:aa:c8:c2:7d:fd:a4:
         f9:06:e7:10:91:b7:4a:66:10:2e:ab:0a:87:ec:bf:e3:6b:28:
         0c:0e:4a:f8:8e:11:f7:4f:55:ca:ca:fd:d0:fc:93:a9:d0:95:
         d9:01:30:f8:71:51:27:ea:11:c5:24:86:6c:9f:65:36:56:74:
         90:52:01:7f:14:d2:05:0f:ef:17:0f:c9:ac:7e:a9:9e:b3:51:
         2b:8f:15:72:6e:92:37:0b:12:83:9c:d8:e5:91:8d:7a:df:34:
         4c:e4:50:2c:78:fc:24:f3:b3:0a:01:ba:c5:dc:3d:84:23:a5:
         8c:04:2d:ca
-----BEGIN CERTIFICATE-----
MIICrDCCAZQCAQwwDQYJKoZIhvcNAQELBQAwFzEVMBMGA1UEAwwMUFZaRC1UZXN0
LUNBMB4XDTE4MTEzMDE5MzgzMloXDTM5MDYxMzE5MzgzMlowITEfMB0GA1UEAwwW
aWRwMjIuaWRlbnRpbmV0aWNzLmNvbTCCASIwDQYJKoZIhvcNAQEBBQADggEPADCC
AQoCggEBALldtEkU+ERD2XckMAsrfWtC7RoS7wolTQ+xlArHIj8/gccjsgVu29xE
q2H1d0uZV1kglniDL/HvAyQ0Pktj96y+qTOKMk0Ea5tepCZYFtedQMCUVzTYYCdC
w1kyPJZxISAy1MCyTLyM4A7vDzCVog1emtfrZcYho0ljaqEyYxdLmbRV5kv7Pvfm
eFbrlsiv6VmJ8eGf0N8PQ9F+MkaKPPStbntH0u3uEVX8WEj4GUlRdxN7yHLSV2x+
yrCYTmXJiPB2q7VmaEM6m/1OPe8bmzJHL30s4Rgj1WTtl038Xq/nvAd9GNjzF/NV
so9aRIjOWXRv5/kOkDo+jZOtv41bzLcCAwEAATANBgkqhkiG9w0BAQsFAAOCAQEA
qru0XRGTVwUhRJL2UQVDXA/suUGBVdz8id/H83AfgvSMVuPlqY70XdVEXZpN136k
c8EoLzSYWCO4BSctMv87noGd8lL1HSAMt1iJ/Xrjw5Aa8/ndE/MDXUM+fqgMuM6B
ZKBAui/K+5E28o8b2zhpaKiSVE8nVjR68daHW0vUoRlT7wWLcBrWheEuqsjCff2k
+QbnEJG3SmYQLqsKh+y/42soDA5K+I4R909Vysr90PyTqdCV2QEw+HFRJ+oRxSSG
bJ9lNlZ0kFIBfxTSBQ/vFw/JrH6pnrNRK48Vcm6SNwsSg5zY5ZGNet80TORQLHj8
JPOzCgG6xdw9hCOljAQtyg==
-----END CERTIFICATE-----
