Certificate:
    Data:
        Version: 1 (0x0)
        Serial Number: 13 (0xd)
    Signature Algorithm: sha256WithRSAEncryption
        Issuer: CN=PVZD-Test-CA
        Validity
            Not Before: Dec  2 07:15:55 2018 GMT
            Not After : Jun 15 07:15:55 2039 GMT
        Subject: CN=idp11.example.com
        Subject Public Key Info:
            Public Key Algorithm: rsaEncryption
                Public-Key: (2048 bit)
                Modulus:
                    00:c9:1a:ea:c9:01:3c:7e:be:00:cc:76:2c:16:61:
                    79:2b:dd:e6:03:2b:35:41:a4:22:18:fe:38:1b:81:
                    0f:27:4b:de:3f:39:08:ac:c4:2d:f3:f1:28:dc:93:
                    a3:5f:9e:c1:1e:92:45:e9:d8:dc:15:48:bf:a9:c7:
                    da:4a:30:2b:4c:54:75:9c:b5:39:75:8b:31:f1:07:
                    f8:d0:20:2a:af:13:68:0c:c2:1d:0f:5f:2f:ac:30:
                    2f:72:6d:69:9e:46:41:36:4e:0a:81:75:e5:bd:8e:
                    f4:f8:2d:5c:81:98:3d:fb:89:f4:79:36:14:1a:41:
                    d5:42:65:36:80:65:8b:be:dd:b9:bd:3e:2d:21:36:
                    b5:c3:96:49:c8:ae:89:9e:61:7f:1d:c1:26:fb:c1:
                    0e:7a:25:b3:65:d1:66:9d:cb:13:3d:73:9b:38:f1:
                    b5:37:43:75:5e:99:11:60:dd:5a:02:0e:bb:48:9a:
                    a7:e1:62:b9:68:d5:e6:55:cf:9c:0f:f2:b6:69:9a:
                    00:69:91:32:57:c3:05:e6:e5:d0:9c:95:87:43:9c:
                    c0:ab:e6:89:fc:55:98:37:7f:5d:89:b4:ce:4d:83:
                    44:27:3d:da:48:51:5c:3b:bd:cb:83:f6:37:a1:6d:
                    a0:33:28:28:d1:45:ba:02:3a:2e:d4:7d:e6:35:b1:
                    48:db
                Exponent: 65537 (0x10001)
    Signature Algorithm: sha256WithRSAEncryption
         46:9e:49:4c:d0:71:83:d0:30:c3:f7:e6:95:29:ca:02:6c:f9:
         5e:10:b9:57:fb:fb:ec:a5:1b:62:cc:5e:4d:cb:49:78:61:d4:
         57:3d:0f:29:4d:6a:d5:6f:cc:f7:47:fc:42:27:4d:70:bc:12:
         d2:f1:c5:c2:ba:52:e5:41:48:08:9f:dc:7f:f4:78:71:02:61:
         65:db:84:05:15:f0:a3:66:f0:5c:d2:e7:46:0a:aa:86:76:15:
         7a:36:c8:c6:23:d4:f6:46:34:cc:e5:73:de:db:11:26:fb:f0:
         df:c6:1e:f7:fe:9d:8f:e5:e9:75:be:4d:21:39:e7:14:99:21:
         e1:25:2c:5d:46:f3:f2:0e:7b:ce:a5:ac:41:56:e4:ab:f1:6c:
         31:ec:41:ec:4a:96:58:38:a3:04:3e:c3:9d:9d:82:c3:b3:53:
         48:f2:00:2c:45:00:fb:b4:c7:60:86:bb:a0:37:a6:a7:2b:b0:
         e3:bb:7b:30:8a:7c:2b:74:8d:b0:c9:01:30:6b:8c:e2:40:18:
         7b:f8:c8:60:9a:46:97:04:7b:d1:c6:c3:d4:b0:d7:fc:58:02:
         96:a1:65:99:39:b2:1d:6e:15:5c:94:c0:d5:56:50:f8:2d:a7:
         8b:d4:22:b6:9d:45:56:f1:75:cf:9b:b6:6c:d3:b8:66:cf:70:
         ff:ed:ef:cf
-----BEGIN CERTIFICATE-----
MIICpzCCAY8CAQ0wDQYJKoZIhvcNAQELBQAwFzEVMBMGA1UEAwwMUFZaRC1UZXN0
LUNBMB4XDTE4MTIwMjA3MTU1NVoXDTM5MDYxNTA3MTU1NVowHDEaMBgGA1UEAwwR
aWRwMTEuZXhhbXBsZS5jb20wggEiMA0GCSqGSIb3DQEBAQUAA4IBDwAwggEKAoIB
AQDJGurJATx+vgDMdiwWYXkr3eYDKzVBpCIY/jgbgQ8nS94/OQisxC3z8Sjck6Nf
nsEekkXp2NwVSL+px9pKMCtMVHWctTl1izHxB/jQICqvE2gMwh0PXy+sMC9ybWme
RkE2TgqBdeW9jvT4LVyBmD37ifR5NhQaQdVCZTaAZYu+3bm9Pi0hNrXDlknIrome
YX8dwSb7wQ56JbNl0WadyxM9c5s48bU3Q3VemRFg3VoCDrtImqfhYrlo1eZVz5wP
8rZpmgBpkTJXwwXm5dCclYdDnMCr5on8VZg3f12JtM5Ng0QnPdpIUVw7vcuD9jeh
baAzKCjRRboCOi7UfeY1sUjbAgMBAAEwDQYJKoZIhvcNAQELBQADggEBAEaeSUzQ
cYPQMMP35pUpygJs+V4QuVf7++ylG2LMXk3LSXhh1Fc9DylNatVvzPdH/EInTXC8
EtLxxcK6UuVBSAif3H/0eHECYWXbhAUV8KNm8FzS50YKqoZ2FXo2yMYj1PZGNMzl
c97bESb78N/GHvf+nY/l6XW+TSE55xSZIeElLF1G8/IOe86lrEFW5KvxbDHsQexK
llg4owQ+w52dgsOzU0jyACxFAPu0x2CGu6A3pqcrsOO7ezCKfCt0jbDJATBrjOJA
GHv4yGCaRpcEe9HGw9Sw1/xYApahZZk5sh1uFVyUwNVWUPgtp4vUIradRVbxdc+b
tmzTuGbPcP/t788=
-----END CERTIFICATE-----
