Certificate Request:
    Data:
        Version: 0 (0x0)
        Subject: CN=extranet.unido.org
        Subject Public Key Info:
            Public Key Algorithm: rsaEncryption
                Public-Key: (2048 bit)
                Modulus:
                    00:bc:70:42:32:8d:a9:d9:f8:45:a3:fe:48:97:af:
                    9f:a6:17:9d:8f:a9:8f:2b:b7:fa:32:ab:75:b1:ce:
                    a6:a6:8b:59:6c:e4:81:c4:1c:36:0f:24:43:fc:e9:
                    05:60:d3:c5:6c:8e:2d:a3:2f:81:7f:28:79:ba:57:
                    0c:28:b4:16:e0:10:63:a2:69:4e:b5:ae:69:a6:cb:
                    73:03:f2:89:ae:fb:fa:a5:d1:7e:44:fe:82:f6:bd:
                    5b:a3:af:b8:2b:60:53:dd:cb:fc:44:42:20:44:b1:
                    dd:f9:ef:db:10:1c:1b:33:0d:e1:f2:c8:c9:3a:1f:
                    07:e3:80:0c:a3:c1:e1:8c:fd:56:df:dc:11:fd:d4:
                    20:69:3c:a7:34:4c:00:b7:20:8b:ab:8c:fa:51:39:
                    ce:50:df:76:49:cd:95:d4:cd:24:f8:36:fd:fc:87:
                    a4:aa:93:e4:d8:7d:bc:e6:67:1b:9e:2d:4b:0a:33:
                    e1:9d:ff:70:f8:d5:9c:b1:ce:03:85:57:1c:9c:c3:
                    60:64:7d:28:85:4a:b7:11:52:00:63:fa:bf:22:90:
                    38:56:d4:2a:85:d8:17:de:cc:5e:9a:00:e6:53:c2:
                    22:7b:5f:30:1d:d7:7b:b0:eb:35:b9:9c:a2:26:13:
                    77:59:f1:f4:37:58:9b:78:da:ff:b8:d6:f0:a2:de:
                    ab:d7
                Exponent: 65537 (0x10001)
        Attributes:
            a0:00
    Signature Algorithm: sha256WithRSAEncryption
         81:5f:6b:c2:7a:79:0e:81:2d:74:1a:ac:f9:c8:cc:b9:36:41:
         1a:1b:8a:67:41:cb:82:c4:17:80:fc:1a:03:e2:4f:9a:99:d4:
         5a:e3:02:1e:c2:ea:46:d9:1d:40:83:24:68:9f:6c:1c:7d:2e:
         e0:28:61:b0:7f:8c:f8:71:13:98:01:f9:70:34:32:b8:69:f7:
         75:81:c3:86:fe:1d:77:ae:15:7c:b6:99:d4:3d:ae:92:6e:18:
         f0:87:10:a8:19:78:fa:cf:f0:3d:a6:4b:02:d7:9b:61:bc:4c:
         b3:93:a0:47:b5:db:b9:b5:b0:a9:4c:27:8b:82:85:24:8e:d8:
         45:b8:52:55:d4:a3:9e:9b:47:84:35:6f:37:55:f2:a4:7f:20:
         5e:27:7b:b9:bc:25:ca:63:d0:12:2c:6e:20:0f:d3:36:3c:69:
         11:44:d8:3f:33:10:e0:d5:6a:bf:b6:f0:fd:7f:0d:ee:f8:bf:
         67:f1:4f:1d:a5:c7:e5:5e:ea:61:1b:38:a5:98:ec:3f:7b:89:
         5f:9b:39:8b:e9:66:61:dc:7d:c3:85:c3:98:70:24:f6:91:8e:
         ff:bf:5f:8c:b1:56:0d:c8:db:da:76:ca:ba:f5:1e:50:6d:dd:
         56:03:6f:d0:94:97:23:b6:68:e6:3f:3b:59:34:dc:0a:95:bc:
         bc:7c:91:76
-----BEGIN CERTIFICATE REQUEST-----
MIICYjCCAUoCAQAwHTEbMBkGA1UEAwwSZXh0cmFuZXQudW5pZG8ub3JnMIIBIjAN
BgkqhkiG9w0BAQEFAAOCAQ8AMIIBCgKCAQEAvHBCMo2p2fhFo/5Il6+fphedj6mP
K7f6Mqt1sc6mpotZbOSBxBw2DyRD/OkFYNPFbI4toy+Bfyh5ulcMKLQW4BBjomlO
ta5ppstzA/KJrvv6pdF+RP6C9r1bo6+4K2BT3cv8REIgRLHd+e/bEBwbMw3h8sjJ
Oh8H44AMo8HhjP1W39wR/dQgaTynNEwAtyCLq4z6UTnOUN92Sc2V1M0k+Db9/Iek
qpPk2H285mcbni1LCjPhnf9w+NWcsc4DhVccnMNgZH0ohUq3EVIAY/q/IpA4VtQq
hdgX3sxemgDmU8Iie18wHdd7sOs1uZyiJhN3WfH0N1ibeNr/uNbwot6r1wIDAQAB
oAAwDQYJKoZIhvcNAQELBQADggEBAIFfa8J6eQ6BLXQarPnIzLk2QRobimdBy4LE
F4D8GgPiT5qZ1FrjAh7C6kbZHUCDJGifbBx9LuAoYbB/jPhxE5gB+XA0Mrhp93WB
w4b+HXeuFXy2mdQ9rpJuGPCHEKgZePrP8D2mSwLXm2G8TLOToEe127m1sKlMJ4uC
hSSO2EW4UlXUo56bR4Q1bzdV8qR/IF4ne7m8Jcpj0BIsbiAP0zY8aRFE2D8zEODV
ar+28P1/De74v2fxTx2lx+Ve6mEbOKWY7D97iV+bOYvpZmHcfcOFw5hwJPaRjv+/
X4yxVg3I29p2yrr1HlBt3VYDb9CUlyO2aOY/O1k03AqVvLx8kXY=
-----END CERTIFICATE REQUEST-----
