Certificate:
    Data:
        Version: 1 (0x0)
        Serial Number: 4 (0x4)
    Signature Algorithm: sha256WithRSAEncryption
        Issuer: CN=PVZD-Test-CA
        Validity
            Not Before: Oct 30 21:38:33 2018 GMT
            Not After : Oct 27 21:38:33 2028 GMT
        Subject: CN=gondor.wien.gv.at
        Subject Public Key Info:
            Public Key Algorithm: rsaEncryption
                Public-Key: (2048 bit)
                Modulus:
                    00:cb:1e:b8:57:20:30:c5:30:8f:bf:67:d9:5c:59:
                    51:54:63:30:4f:85:89:4c:31:62:d2:2c:e2:66:9e:
                    da:67:56:cb:e6:b6:22:2c:ee:b9:b5:70:60:08:60:
                    cb:4f:c7:c0:f1:80:4f:61:93:f8:a2:45:7d:10:60:
                    2b:b4:6e:db:69:73:20:98:26:e6:34:20:71:4d:e2:
                    c3:f7:6b:ff:60:a6:db:83:7e:6c:6b:2e:98:92:89:
                    50:fa:93:91:07:68:89:b3:cd:71:62:28:9e:02:46:
                    d7:47:ba:b7:94:a8:26:c7:a9:d1:7a:30:3a:62:65:
                    0b:77:35:fe:49:87:8b:cb:20:88:b8:ff:21:0a:d6:
                    61:83:d5:dc:0d:b0:80:cf:f9:23:18:b9:56:dd:22:
                    29:af:62:a0:db:44:dc:18:ce:5c:ca:3d:4b:28:f8:
                    6b:fd:dd:f5:89:48:c1:5c:f4:60:28:8c:3f:90:d8:
                    60:b0:95:f4:3d:88:d9:5a:19:ea:2a:90:02:95:9a:
                    8a:6a:fe:97:a1:df:9d:30:6b:3b:a6:ec:22:5e:cd:
                    b5:e8:cd:d4:6f:35:1a:d5:82:ac:cf:91:08:9c:a0:
                    ec:e9:47:03:b6:02:fb:31:d3:02:31:d3:cc:a1:50:
                    54:ee:55:85:31:94:af:88:94:61:01:d5:3f:08:48:
                    14:4d
                Exponent: 65537 (0x10001)
    Signature Algorithm: sha256WithRSAEncryption
         43:f1:b0:12:bd:fc:17:24:da:85:48:65:17:51:eb:4a:41:9f:
         0b:9c:b7:e6:bc:8b:cc:db:f9:f8:0c:fc:a2:20:1b:fc:4e:15:
         90:e8:ec:8b:49:7f:ca:58:ca:a7:44:e4:ed:a7:c6:54:e3:e7:
         b0:0c:3f:41:41:cb:70:1c:bd:03:49:be:92:bd:a8:93:fe:27:
         e8:7d:7e:08:f0:c6:4f:d3:a8:bb:0b:bf:b6:bf:01:6a:a4:da:
         a2:e8:b9:01:6d:44:61:31:f9:e3:c2:a6:54:0f:97:a7:59:8e:
         ae:8f:12:3e:0f:91:57:8e:6c:63:e2:9b:97:97:15:0e:e2:df:
         c1:d4:8b:2c:a7:ab:53:a5:0c:6b:4d:4b:c0:ca:b2:ec:f7:b9:
         8d:cf:b0:75:2c:85:a8:d9:ac:97:8b:74:00:ae:f5:1f:14:3a:
         27:ad:dd:4b:dd:ed:86:51:de:08:b3:ee:35:42:cc:06:dc:c2:
         7c:2c:be:89:20:f5:ab:23:11:c9:13:ee:44:42:bd:79:c4:62:
         b1:64:70:01:19:09:84:56:8f:aa:ad:8e:90:a7:a9:68:bf:e7:
         78:c7:ee:13:c7:b0:f9:e1:85:0b:5f:c9:df:41:ec:d0:fb:a5:
         fa:eb:7b:af:6d:55:1d:91:91:5a:88:f7:12:cd:60:d3:bf:c2:
         46:25:42:64
-----BEGIN CERTIFICATE-----
MIICpzCCAY8CAQQwDQYJKoZIhvcNAQELBQAwFzEVMBMGA1UEAwwMUFZaRC1UZXN0
LUNBMB4XDTE4MTAzMDIxMzgzM1oXDTI4MTAyNzIxMzgzM1owHDEaMBgGA1UEAwwR
Z29uZG9yLndpZW4uZ3YuYXQwggEiMA0GCSqGSIb3DQEBAQUAA4IBDwAwggEKAoIB
AQDLHrhXIDDFMI+/Z9lcWVFUYzBPhYlMMWLSLOJmntpnVsvmtiIs7rm1cGAIYMtP
x8DxgE9hk/iiRX0QYCu0bttpcyCYJuY0IHFN4sP3a/9gptuDfmxrLpiSiVD6k5EH
aImzzXFiKJ4CRtdHureUqCbHqdF6MDpiZQt3Nf5Jh4vLIIi4/yEK1mGD1dwNsIDP
+SMYuVbdIimvYqDbRNwYzlzKPUso+Gv93fWJSMFc9GAojD+Q2GCwlfQ9iNlaGeoq
kAKVmopq/peh350wazum7CJezbXozdRvNRrVgqzPkQicoOzpRwO2Avsx0wIx08yh
UFTuVYUxlK+IlGEB1T8ISBRNAgMBAAEwDQYJKoZIhvcNAQELBQADggEBAEPxsBK9
/Bck2oVIZRdR60pBnwuct+a8i8zb+fgM/KIgG/xOFZDo7ItJf8pYyqdE5O2nxlTj
57AMP0FBy3AcvQNJvpK9qJP+J+h9fgjwxk/TqLsLv7a/AWqk2qLouQFtRGEx+ePC
plQPl6dZjq6PEj4PkVeObGPim5eXFQ7i38HUiyynq1OlDGtNS8DKsuz3uY3PsHUs
hajZrJeLdACu9R8UOiet3Uvd7YZR3giz7jVCzAbcwnwsvokg9asjEckT7kRCvXnE
YrFkcAEZCYRWj6qtjpCnqWi/53jH7hPHsPnhhQtfyd9B7ND7pfrre69tVR2RkVqI
9xLNYNO/wkYlQmQ=
-----END CERTIFICATE-----
