Certificate Request:
    Data:
        Version: 0 (0x0)
        Subject: CN=gondor.wien.gv.at
        Subject Public Key Info:
            Public Key Algorithm: rsaEncryption
                Public-Key: (2048 bit)
                Modulus:
                    00:cb:1e:b8:57:20:30:c5:30:8f:bf:67:d9:5c:59:
                    51:54:63:30:4f:85:89:4c:31:62:d2:2c:e2:66:9e:
                    da:67:56:cb:e6:b6:22:2c:ee:b9:b5:70:60:08:60:
                    cb:4f:c7:c0:f1:80:4f:61:93:f8:a2:45:7d:10:60:
                    2b:b4:6e:db:69:73:20:98:26:e6:34:20:71:4d:e2:
                    c3:f7:6b:ff:60:a6:db:83:7e:6c:6b:2e:98:92:89:
                    50:fa:93:91:07:68:89:b3:cd:71:62:28:9e:02:46:
                    d7:47:ba:b7:94:a8:26:c7:a9:d1:7a:30:3a:62:65:
                    0b:77:35:fe:49:87:8b:cb:20:88:b8:ff:21:0a:d6:
                    61:83:d5:dc:0d:b0:80:cf:f9:23:18:b9:56:dd:22:
                    29:af:62:a0:db:44:dc:18:ce:5c:ca:3d:4b:28:f8:
                    6b:fd:dd:f5:89:48:c1:5c:f4:60:28:8c:3f:90:d8:
                    60:b0:95:f4:3d:88:d9:5a:19:ea:2a:90:02:95:9a:
                    8a:6a:fe:97:a1:df:9d:30:6b:3b:a6:ec:22:5e:cd:
                    b5:e8:cd:d4:6f:35:1a:d5:82:ac:cf:91:08:9c:a0:
                    ec:e9:47:03:b6:02:fb:31:d3:02:31:d3:cc:a1:50:
                    54:ee:55:85:31:94:af:88:94:61:01:d5:3f:08:48:
                    14:4d
                Exponent: 65537 (0x10001)
        Attributes:
            a0:00
    Signature Algorithm: sha256WithRSAEncryption
         21:56:06:48:cf:51:a0:05:5b:ea:25:23:96:92:f2:8d:3d:3e:
         88:12:6c:1e:39:a7:f3:75:ba:14:3e:3a:57:9e:fe:b3:77:d7:
         aa:42:eb:c6:ec:7a:06:b4:a3:51:d3:cc:98:24:ae:77:00:03:
         25:d8:57:86:a1:11:63:85:66:1b:7b:84:78:6c:e9:99:bf:87:
         ee:07:75:c9:1f:fe:cb:83:26:c9:9b:fb:96:b9:04:a7:54:dc:
         1f:91:86:58:90:04:85:0d:ea:fc:28:94:a9:4e:70:71:3f:63:
         a6:af:be:27:0a:de:c2:1a:54:93:74:b3:4d:eb:a7:ab:d3:92:
         64:bf:72:36:b9:eb:17:2b:1c:86:a7:3b:a6:f4:f9:6c:0c:a6:
         94:e0:9b:f7:78:ae:c4:e7:80:0a:14:8f:61:f7:90:25:cb:84:
         a2:80:04:49:12:d7:cd:38:c5:a8:f9:1a:d5:fc:6a:1a:72:96:
         7c:8f:2d:dc:54:ef:31:32:de:40:76:68:4e:17:e1:25:69:1d:
         9e:fd:96:5e:d1:18:b2:c2:12:3c:6b:32:3f:b3:98:49:76:0f:
         66:bb:f5:b7:4e:67:f3:cc:aa:5d:01:b0:ee:a7:68:13:2f:6d:
         eb:82:22:49:11:c9:df:ce:b3:ed:d7:cb:35:e8:f7:2b:13:07:
         a2:0c:49:41
-----BEGIN CERTIFICATE REQUEST-----
MIICYTCCAUkCAQAwHDEaMBgGA1UEAwwRZ29uZG9yLndpZW4uZ3YuYXQwggEiMA0G
CSqGSIb3DQEBAQUAA4IBDwAwggEKAoIBAQDLHrhXIDDFMI+/Z9lcWVFUYzBPhYlM
MWLSLOJmntpnVsvmtiIs7rm1cGAIYMtPx8DxgE9hk/iiRX0QYCu0bttpcyCYJuY0
IHFN4sP3a/9gptuDfmxrLpiSiVD6k5EHaImzzXFiKJ4CRtdHureUqCbHqdF6MDpi
ZQt3Nf5Jh4vLIIi4/yEK1mGD1dwNsIDP+SMYuVbdIimvYqDbRNwYzlzKPUso+Gv9
3fWJSMFc9GAojD+Q2GCwlfQ9iNlaGeoqkAKVmopq/peh350wazum7CJezbXozdRv
NRrVgqzPkQicoOzpRwO2Avsx0wIx08yhUFTuVYUxlK+IlGEB1T8ISBRNAgMBAAGg
ADANBgkqhkiG9w0BAQsFAAOCAQEAIVYGSM9RoAVb6iUjlpLyjT0+iBJsHjmn83W6
FD46V57+s3fXqkLrxux6BrSjUdPMmCSudwADJdhXhqERY4VmG3uEeGzpmb+H7gd1
yR/+y4MmyZv7lrkEp1TcH5GGWJAEhQ3q/CiUqU5wcT9jpq++JwrewhpUk3SzTeun
q9OSZL9yNrnrFyschqc7pvT5bAymlOCb93iuxOeAChSPYfeQJcuEooAESRLXzTjF
qPka1fxqGnKWfI8t3FTvMTLeQHZoThfhJWkdnv2WXtEYssISPGsyP7OYSXYPZrv1
t05n88yqXQGw7qdoEy9t64IiSRHJ386z7dfLNej3KxMHogxJQQ==
-----END CERTIFICATE REQUEST-----
