Certificate:
    Data:
        Version: 1 (0x0)
        Serial Number: 7 (0x7)
    Signature Algorithm: sha256WithRSAEncryption
        Issuer: CN=PVZD-Test-CA
        Validity
            Not Before: Nov 25 15:34:45 2018 GMT
            Not After : Nov 22 15:34:45 2028 GMT
        Subject: CN=idp1.example.org
        Subject Public Key Info:
            Public Key Algorithm: rsaEncryption
                Public-Key: (2048 bit)
                Modulus:
                    00:98:66:47:fb:2d:58:1c:02:b9:8d:68:ab:16:59:
                    f8:62:19:31:f2:50:b5:02:5a:b8:1c:d7:c7:33:17:
                    ef:2e:58:2f:2f:58:a2:08:5d:75:7c:a2:17:0e:b5:
                    e2:f2:9b:ac:32:88:df:03:9c:82:16:ba:8c:e9:6c:
                    a6:f5:64:10:5c:63:8d:57:50:3d:76:f9:9c:39:cd:
                    1c:08:5d:e4:bf:0f:8e:85:9c:00:c0:24:f9:6e:2c:
                    22:e0:d8:7a:c9:4e:28:08:5d:f0:0c:1c:a2:d6:2d:
                    d0:8d:e2:7c:e1:f0:7e:54:59:9a:c4:3d:95:5d:5e:
                    5f:33:3e:a8:54:3b:f0:d7:5d:b1:ca:53:2a:ab:46:
                    9d:bb:0b:fc:d1:34:f4:c9:67:4b:ac:6d:a8:af:52:
                    8a:ea:83:0c:59:37:73:63:73:75:d5:0d:96:7c:43:
                    a3:40:08:fb:10:1c:98:ef:5c:6b:8f:cf:80:18:99:
                    e3:df:a6:46:9c:bd:c6:78:84:a0:da:c1:a0:22:27:
                    2f:b9:39:89:44:02:e3:70:28:65:05:74:f0:d0:3a:
                    88:1b:40:07:30:9f:7a:46:dc:d6:96:27:0e:e2:a5:
                    9d:0f:3b:59:e4:1d:44:16:e0:9f:33:40:26:c7:6c:
                    9d:56:5a:65:b8:20:4c:9b:1f:c3:6a:5b:b0:a7:09:
                    59:25
                Exponent: 65537 (0x10001)
    Signature Algorithm: sha256WithRSAEncryption
         77:34:46:df:6d:65:ab:da:7b:72:d4:9b:c8:35:5c:f2:7c:5d:
         ed:44:eb:1e:cd:72:95:f4:c5:bc:ab:7f:5e:2c:94:d8:9d:52:
         2e:10:52:a2:16:42:65:a2:dc:bb:66:26:e5:85:b2:cc:18:3c:
         d9:d5:a1:e2:f9:ea:8c:55:16:55:c5:8e:e6:cf:ee:c6:b1:df:
         54:16:f5:57:ac:c2:69:2f:b6:b0:70:9f:81:28:73:c7:da:51:
         3f:ee:69:a1:ee:f1:8a:be:34:08:fe:df:46:92:b3:47:1c:8e:
         e6:4d:63:8d:f5:d9:49:4a:eb:79:f7:18:29:74:cf:9c:4d:84:
         13:b2:27:bd:7d:81:5c:b9:fe:a4:6b:fa:d7:c9:d0:2e:b9:51:
         95:29:91:6f:2a:3c:46:55:e7:5c:d0:bb:d4:ea:77:10:40:b5:
         ad:0b:da:dc:34:f4:da:88:2b:3c:61:31:ef:48:d5:de:1a:c0:
         8a:0a:d0:3b:73:01:a5:95:b2:9a:b5:ac:82:7b:c6:d7:63:69:
         e0:a5:29:4b:f9:1c:ee:87:73:34:42:bb:d0:5d:a8:18:e8:ea:
         3e:7a:e0:bf:b9:37:57:c6:20:57:61:d7:91:8b:84:7a:00:8d:
         0d:da:c8:7b:a6:85:b2:77:ae:6f:37:ff:a5:27:1f:f7:33:8a:
         cd:e1:98:2c
-----BEGIN CERTIFICATE-----
MIICpjCCAY4CAQcwDQYJKoZIhvcNAQELBQAwFzEVMBMGA1UEAwwMUFZaRC1UZXN0
LUNBMB4XDTE4MTEyNTE1MzQ0NVoXDTI4MTEyMjE1MzQ0NVowGzEZMBcGA1UEAwwQ
aWRwMS5leGFtcGxlLm9yZzCCASIwDQYJKoZIhvcNAQEBBQADggEPADCCAQoCggEB
AJhmR/stWBwCuY1oqxZZ+GIZMfJQtQJauBzXxzMX7y5YLy9YoghddXyiFw614vKb
rDKI3wOcgha6jOlspvVkEFxjjVdQPXb5nDnNHAhd5L8PjoWcAMAk+W4sIuDYeslO
KAhd8AwcotYt0I3ifOHwflRZmsQ9lV1eXzM+qFQ78NddscpTKqtGnbsL/NE09Mln
S6xtqK9SiuqDDFk3c2NzddUNlnxDo0AI+xAcmO9ca4/PgBiZ49+mRpy9xniEoNrB
oCInL7k5iUQC43AoZQV08NA6iBtABzCfekbc1pYnDuKlnQ87WeQdRBbgnzNAJsds
nVZaZbggTJsfw2pbsKcJWSUCAwEAATANBgkqhkiG9w0BAQsFAAOCAQEAdzRG321l
q9p7ctSbyDVc8nxd7UTrHs1ylfTFvKt/XiyU2J1SLhBSohZCZaLcu2Ym5YWyzBg8
2dWh4vnqjFUWVcWO5s/uxrHfVBb1V6zCaS+2sHCfgShzx9pRP+5poe7xir40CP7f
RpKzRxyO5k1jjfXZSUrrefcYKXTPnE2EE7InvX2BXLn+pGv618nQLrlRlSmRbyo8
RlXnXNC71Op3EEC1rQva3DT02ogrPGEx70jV3hrAigrQO3MBpZWymrWsgnvG12Np
4KUpS/kc7odzNEK70F2oGOjqPnrgv7k3V8YgV2HXkYuEegCNDdrIe6aFsneubzf/
pScf9zOKzeGYLA==
-----END CERTIFICATE-----
