Certificate Request:
    Data:
        Version: 0 (0x0)
        Subject: CN=idp11.example.com
        Subject Public Key Info:
            Public Key Algorithm: rsaEncryption
                Public-Key: (2048 bit)
                Modulus:
                    00:c9:1a:ea:c9:01:3c:7e:be:00:cc:76:2c:16:61:
                    79:2b:dd:e6:03:2b:35:41:a4:22:18:fe:38:1b:81:
                    0f:27:4b:de:3f:39:08:ac:c4:2d:f3:f1:28:dc:93:
                    a3:5f:9e:c1:1e:92:45:e9:d8:dc:15:48:bf:a9:c7:
                    da:4a:30:2b:4c:54:75:9c:b5:39:75:8b:31:f1:07:
                    f8:d0:20:2a:af:13:68:0c:c2:1d:0f:5f:2f:ac:30:
                    2f:72:6d:69:9e:46:41:36:4e:0a:81:75:e5:bd:8e:
                    f4:f8:2d:5c:81:98:3d:fb:89:f4:79:36:14:1a:41:
                    d5:42:65:36:80:65:8b:be:dd:b9:bd:3e:2d:21:36:
                    b5:c3:96:49:c8:ae:89:9e:61:7f:1d:c1:26:fb:c1:
                    0e:7a:25:b3:65:d1:66:9d:cb:13:3d:73:9b:38:f1:
                    b5:37:43:75:5e:99:11:60:dd:5a:02:0e:bb:48:9a:
                    a7:e1:62:b9:68:d5:e6:55:cf:9c:0f:f2:b6:69:9a:
                    00:69:91:32:57:c3:05:e6:e5:d0:9c:95:87:43:9c:
                    c0:ab:e6:89:fc:55:98:37:7f:5d:89:b4:ce:4d:83:
                    44:27:3d:da:48:51:5c:3b:bd:cb:83:f6:37:a1:6d:
                    a0:33:28:28:d1:45:ba:02:3a:2e:d4:7d:e6:35:b1:
                    48:db
                Exponent: 65537 (0x10001)
        Attributes:
            a0:00
    Signature Algorithm: sha256WithRSAEncryption
         67:de:18:5a:6f:42:93:8b:dd:9f:19:3d:95:86:51:fb:43:07:
         b8:bf:e4:8a:cb:52:35:5a:a9:0e:57:e4:f0:5a:ca:5a:1a:c5:
         d1:ef:43:8b:7a:e3:23:4a:e9:a8:70:dc:67:7b:fd:12:35:1c:
         05:e3:f9:ce:a3:76:43:45:b7:bc:b3:d9:e8:46:70:3e:c7:ab:
         d3:66:41:0c:d7:e4:fc:e0:39:20:77:45:8e:9e:12:7f:eb:b2:
         65:80:7f:cd:f1:7c:f3:2b:a9:ee:47:4a:c0:ae:2b:77:9a:d0:
         95:b7:3f:e8:93:02:bf:c2:db:d6:4c:aa:45:05:d2:23:39:80:
         70:06:1d:ac:18:cf:d3:a6:82:7c:66:cf:e1:3f:f6:80:c9:3b:
         11:82:9d:a0:9d:c1:a6:bc:f4:56:b2:3e:58:91:76:4d:29:a7:
         c7:f4:06:c1:e5:43:ea:b5:8b:4f:a0:a0:ee:e4:d6:8a:61:f8:
         c2:4b:a5:82:a7:f4:55:35:67:48:ad:1f:09:5e:ed:0a:7a:a9:
         20:20:d7:20:69:9b:d3:51:ad:cf:53:0f:e3:33:ea:cf:a1:64:
         07:f1:1d:3f:86:a6:f8:50:2e:d3:09:3b:53:4e:81:f8:fe:08:
         a0:63:78:f3:c3:9c:54:35:dc:e8:43:c8:6c:2b:77:01:e7:ea:
         5a:db:43:92
-----BEGIN CERTIFICATE REQUEST-----
MIICYTCCAUkCAQAwHDEaMBgGA1UEAwwRaWRwMTEuZXhhbXBsZS5jb20wggEiMA0G
CSqGSIb3DQEBAQUAA4IBDwAwggEKAoIBAQDJGurJATx+vgDMdiwWYXkr3eYDKzVB
pCIY/jgbgQ8nS94/OQisxC3z8Sjck6NfnsEekkXp2NwVSL+px9pKMCtMVHWctTl1
izHxB/jQICqvE2gMwh0PXy+sMC9ybWmeRkE2TgqBdeW9jvT4LVyBmD37ifR5NhQa
QdVCZTaAZYu+3bm9Pi0hNrXDlknIromeYX8dwSb7wQ56JbNl0WadyxM9c5s48bU3
Q3VemRFg3VoCDrtImqfhYrlo1eZVz5wP8rZpmgBpkTJXwwXm5dCclYdDnMCr5on8
VZg3f12JtM5Ng0QnPdpIUVw7vcuD9jehbaAzKCjRRboCOi7UfeY1sUjbAgMBAAGg
ADANBgkqhkiG9w0BAQsFAAOCAQEAZ94YWm9Ck4vdnxk9lYZR+0MHuL/kistSNVqp
Dlfk8FrKWhrF0e9Di3rjI0rpqHDcZ3v9EjUcBeP5zqN2Q0W3vLPZ6EZwPser02ZB
DNfk/OA5IHdFjp4Sf+uyZYB/zfF88yup7kdKwK4rd5rQlbc/6JMCv8Lb1kyqRQXS
IzmAcAYdrBjP06aCfGbP4T/2gMk7EYKdoJ3Bprz0VrI+WJF2TSmnx/QGweVD6rWL
T6Cg7uTWimH4wkulgqf0VTVnSK0fCV7tCnqpICDXIGmb01Gtz1MP4zPqz6FkB/Ed
P4am+FAu0wk7U06B+P4IoGN488OcVDXc6EPIbCt3AefqWttDkg==
-----END CERTIFICATE REQUEST-----
