Certificate Request:
    Data:
        Version: 0 (0x0)
        Subject: CN=idp10.example.com
        Subject Public Key Info:
            Public Key Algorithm: rsaEncryption
                Public-Key: (2048 bit)
                Modulus:
                    00:e2:b0:1b:67:db:91:42:8e:8f:2a:e8:b6:77:eb:
                    09:a7:0f:45:76:34:ba:2c:fc:61:a6:8b:3b:cc:d3:
                    2f:f5:ba:42:66:52:00:ad:1e:a2:21:d0:cd:11:ba:
                    20:7c:1f:8e:8b:87:b7:df:27:90:e6:3d:24:c9:25:
                    aa:ba:68:55:f5:0f:11:51:8f:db:9e:25:13:44:41:
                    c0:1e:95:3f:8c:09:f2:7c:0d:4e:da:71:83:72:16:
                    41:ee:01:5b:8d:1a:1d:fb:db:f3:8a:24:20:b4:f2:
                    51:0f:85:e3:57:5e:13:b3:54:60:d7:93:a3:99:68:
                    80:cd:60:2b:a8:3c:93:3b:b5:71:8f:fd:3f:a4:85:
                    d5:c7:28:11:2a:97:c3:8b:66:86:e2:36:93:4f:6a:
                    46:29:32:71:e8:54:53:87:46:a7:a8:cc:47:7f:c8:
                    63:49:0c:e7:90:83:16:02:4c:28:f3:a6:ce:e6:89:
                    00:6e:6f:b3:c1:9a:b6:26:45:41:2b:d3:8d:39:37:
                    db:35:27:91:e5:7e:63:81:d6:b8:2d:2a:30:85:ce:
                    84:b6:36:5c:7d:60:c9:8d:2d:6a:95:91:2c:94:e4:
                    71:df:5d:a7:1e:3e:36:fa:7f:5d:5f:89:79:38:24:
                    e0:90:32:3b:d2:97:83:e9:39:d3:57:7f:49:e3:48:
                    a5:97
                Exponent: 65537 (0x10001)
        Attributes:
            a0:00
    Signature Algorithm: sha256WithRSAEncryption
         04:8a:c4:ba:f4:c6:b7:23:9f:11:9c:b3:4c:ee:d8:af:a1:a4:
         a8:81:0a:de:ba:ed:a6:e0:cc:ea:bf:b7:d2:00:02:ed:64:c6:
         e6:e1:a3:7d:d4:51:a9:cb:f5:cd:71:42:c1:70:8c:d6:b7:0d:
         6b:d7:af:c2:02:de:ad:26:9e:ae:a7:69:26:d9:71:4e:5f:fd:
         c3:4e:69:32:24:0d:7c:61:b6:6b:7b:20:a5:56:2f:80:f4:2e:
         ac:2e:1b:8a:3a:21:83:62:35:1a:e3:54:a7:f8:d5:e6:0e:3c:
         ca:11:30:3d:3c:cc:c5:82:b1:4c:ee:e4:3e:cc:15:1f:90:42:
         7d:a6:74:5a:ca:70:17:eb:72:98:7c:13:c7:1f:a0:59:d9:14:
         5c:1c:72:22:4c:0f:4f:14:a4:9e:f3:c5:f0:09:93:7d:51:fb:
         f7:54:43:53:fa:79:a4:95:3a:6a:54:74:d2:01:e3:fa:ea:b9:
         8e:05:86:a9:d3:61:72:68:f7:1b:95:02:27:31:83:da:30:38:
         7a:f6:5f:bc:79:06:b6:2c:ca:f0:29:09:c7:e4:b7:76:8e:97:
         7e:36:99:cf:e1:7d:05:23:f5:a5:cd:44:4a:a7:13:11:82:9b:
         aa:1e:31:43:a3:ac:0b:26:42:09:f7:1c:9f:81:20:34:5a:ed:
         55:c9:11:54
-----BEGIN CERTIFICATE REQUEST-----
MIICYTCCAUkCAQAwHDEaMBgGA1UEAwwRaWRwMTAuZXhhbXBsZS5jb20wggEiMA0G
CSqGSIb3DQEBAQUAA4IBDwAwggEKAoIBAQDisBtn25FCjo8q6LZ36wmnD0V2NLos
/GGmizvM0y/1ukJmUgCtHqIh0M0RuiB8H46Lh7ffJ5DmPSTJJaq6aFX1DxFRj9ue
JRNEQcAelT+MCfJ8DU7acYNyFkHuAVuNGh372/OKJCC08lEPheNXXhOzVGDXk6OZ
aIDNYCuoPJM7tXGP/T+khdXHKBEql8OLZobiNpNPakYpMnHoVFOHRqeozEd/yGNJ
DOeQgxYCTCjzps7miQBub7PBmrYmRUEr0405N9s1J5HlfmOB1rgtKjCFzoS2Nlx9
YMmNLWqVkSyU5HHfXacePjb6f11fiXk4JOCQMjvSl4PpOdNXf0njSKWXAgMBAAGg
ADANBgkqhkiG9w0BAQsFAAOCAQEABIrEuvTGtyOfEZyzTO7Yr6GkqIEK3rrtpuDM
6r+30gAC7WTG5uGjfdRRqcv1zXFCwXCM1rcNa9evwgLerSaerqdpJtlxTl/9w05p
MiQNfGG2a3sgpVYvgPQurC4bijohg2I1GuNUp/jV5g48yhEwPTzMxYKxTO7kPswV
H5BCfaZ0WspwF+tymHwTxx+gWdkUXBxyIkwPTxSknvPF8AmTfVH791RDU/p5pJU6
alR00gHj+uq5jgWGqdNhcmj3G5UCJzGD2jA4evZfvHkGtizK8CkJx+S3do6XfjaZ
z+F9BSP1pc1ESqcTEYKbqh4xQ6OsCyZCCfccn4EgNFrtVckRVA==
-----END CERTIFICATE REQUEST-----
