Certificate:
    Data:
        Version: 1 (0x0)
        Serial Number: 10 (0xa)
    Signature Algorithm: sha256WithRSAEncryption
        Issuer: CN=PVZD-Test-CA
        Validity
            Not Before: Nov 26 21:31:30 2018 GMT
            Not After : Nov 27 21:31:30 2018 GMT
        Subject: CN=idp10.example.com
        Subject Public Key Info:
            Public Key Algorithm: rsaEncryption
                Public-Key: (2048 bit)
                Modulus:
                    00:e2:b0:1b:67:db:91:42:8e:8f:2a:e8:b6:77:eb:
                    09:a7:0f:45:76:34:ba:2c:fc:61:a6:8b:3b:cc:d3:
                    2f:f5:ba:42:66:52:00:ad:1e:a2:21:d0:cd:11:ba:
                    20:7c:1f:8e:8b:87:b7:df:27:90:e6:3d:24:c9:25:
                    aa:ba:68:55:f5:0f:11:51:8f:db:9e:25:13:44:41:
                    c0:1e:95:3f:8c:09:f2:7c:0d:4e:da:71:83:72:16:
                    41:ee:01:5b:8d:1a:1d:fb:db:f3:8a:24:20:b4:f2:
                    51:0f:85:e3:57:5e:13:b3:54:60:d7:93:a3:99:68:
                    80:cd:60:2b:a8:3c:93:3b:b5:71:8f:fd:3f:a4:85:
                    d5:c7:28:11:2a:97:c3:8b:66:86:e2:36:93:4f:6a:
                    46:29:32:71:e8:54:53:87:46:a7:a8:cc:47:7f:c8:
                    63:49:0c:e7:90:83:16:02:4c:28:f3:a6:ce:e6:89:
                    00:6e:6f:b3:c1:9a:b6:26:45:41:2b:d3:8d:39:37:
                    db:35:27:91:e5:7e:63:81:d6:b8:2d:2a:30:85:ce:
                    84:b6:36:5c:7d:60:c9:8d:2d:6a:95:91:2c:94:e4:
                    71:df:5d:a7:1e:3e:36:fa:7f:5d:5f:89:79:38:24:
                    e0:90:32:3b:d2:97:83:e9:39:d3:57:7f:49:e3:48:
                    a5:97
                Exponent: 65537 (0x10001)
    Signature Algorithm: sha256WithRSAEncryption
         98:8b:b4:db:31:9d:44:ec:e1:7d:7d:4e:22:fb:6c:cd:e6:92:
         25:ec:6c:18:7d:6c:82:74:1d:c5:20:b3:1c:1d:a8:2f:9c:ce:
         d2:af:c8:1f:94:f1:c0:2f:1c:c0:2f:da:96:5b:8a:76:e1:5f:
         6b:03:3b:82:bb:37:3e:e9:2c:68:a7:28:9e:be:1e:03:26:84:
         48:5b:d1:8d:b7:2a:15:74:1c:58:e4:8f:cd:3f:bd:a0:84:b0:
         a4:1c:5a:41:84:da:de:29:ee:30:4e:b3:b5:70:94:a6:c4:0e:
         54:8d:47:33:3b:fd:1e:b0:7f:9b:7b:b6:6f:a3:b4:99:98:4e:
         8e:42:01:39:30:69:80:96:02:6b:80:84:ea:9c:9e:b5:78:c3:
         de:c7:e1:7d:27:e9:34:68:66:03:d8:e6:e8:95:aa:bc:16:f2:
         9d:69:be:fa:db:d7:ee:fe:28:32:85:ae:d0:0a:1c:51:81:b6:
         c4:39:7a:ca:83:bf:dd:ca:94:27:57:b2:6f:3a:c5:7e:b7:ae:
         bc:c7:aa:9c:39:09:d1:20:ab:a3:dc:49:dc:21:8d:a5:86:e0:
         4c:20:29:4c:70:de:d0:32:aa:77:d4:14:d5:4c:50:d9:7d:8a:
         8d:d3:2c:eb:d3:7f:56:26:4a:0d:c3:8a:51:3f:ac:a2:3a:e8:
         1e:ed:09:78
-----BEGIN CERTIFICATE-----
MIICpzCCAY8CAQowDQYJKoZIhvcNAQELBQAwFzEVMBMGA1UEAwwMUFZaRC1UZXN0
LUNBMB4XDTE4MTEyNjIxMzEzMFoXDTE4MTEyNzIxMzEzMFowHDEaMBgGA1UEAwwR
aWRwMTAuZXhhbXBsZS5jb20wggEiMA0GCSqGSIb3DQEBAQUAA4IBDwAwggEKAoIB
AQDisBtn25FCjo8q6LZ36wmnD0V2NLos/GGmizvM0y/1ukJmUgCtHqIh0M0RuiB8
H46Lh7ffJ5DmPSTJJaq6aFX1DxFRj9ueJRNEQcAelT+MCfJ8DU7acYNyFkHuAVuN
Gh372/OKJCC08lEPheNXXhOzVGDXk6OZaIDNYCuoPJM7tXGP/T+khdXHKBEql8OL
ZobiNpNPakYpMnHoVFOHRqeozEd/yGNJDOeQgxYCTCjzps7miQBub7PBmrYmRUEr
0405N9s1J5HlfmOB1rgtKjCFzoS2Nlx9YMmNLWqVkSyU5HHfXacePjb6f11fiXk4
JOCQMjvSl4PpOdNXf0njSKWXAgMBAAEwDQYJKoZIhvcNAQELBQADggEBAJiLtNsx
nUTs4X19TiL7bM3mkiXsbBh9bIJ0HcUgsxwdqC+cztKvyB+U8cAvHMAv2pZbinbh
X2sDO4K7Nz7pLGinKJ6+HgMmhEhb0Y23KhV0HFjkj80/vaCEsKQcWkGE2t4p7jBO
s7VwlKbEDlSNRzM7/R6wf5t7tm+jtJmYTo5CATkwaYCWAmuAhOqcnrV4w97H4X0n
6TRoZgPY5uiVqrwW8p1pvvrb1+7+KDKFrtAKHFGBtsQ5esqDv93KlCdXsm86xX63
rrzHqpw5CdEgq6PcSdwhjaWG4EwgKUxw3tAyqnfUFNVMUNl9io3TLOvTf1YmSg3D
ilE/rKI66B7tCXg=
-----END CERTIFICATE-----
