Certificate Request:
    Data:
        Version: 0 (0x0)
        Subject: CN=idp1.example.org
        Subject Public Key Info:
            Public Key Algorithm: rsaEncryption
                Public-Key: (2048 bit)
                Modulus:
                    00:98:66:47:fb:2d:58:1c:02:b9:8d:68:ab:16:59:
                    f8:62:19:31:f2:50:b5:02:5a:b8:1c:d7:c7:33:17:
                    ef:2e:58:2f:2f:58:a2:08:5d:75:7c:a2:17:0e:b5:
                    e2:f2:9b:ac:32:88:df:03:9c:82:16:ba:8c:e9:6c:
                    a6:f5:64:10:5c:63:8d:57:50:3d:76:f9:9c:39:cd:
                    1c:08:5d:e4:bf:0f:8e:85:9c:00:c0:24:f9:6e:2c:
                    22:e0:d8:7a:c9:4e:28:08:5d:f0:0c:1c:a2:d6:2d:
                    d0:8d:e2:7c:e1:f0:7e:54:59:9a:c4:3d:95:5d:5e:
                    5f:33:3e:a8:54:3b:f0:d7:5d:b1:ca:53:2a:ab:46:
                    9d:bb:0b:fc:d1:34:f4:c9:67:4b:ac:6d:a8:af:52:
                    8a:ea:83:0c:59:37:73:63:73:75:d5:0d:96:7c:43:
                    a3:40:08:fb:10:1c:98:ef:5c:6b:8f:cf:80:18:99:
                    e3:df:a6:46:9c:bd:c6:78:84:a0:da:c1:a0:22:27:
                    2f:b9:39:89:44:02:e3:70:28:65:05:74:f0:d0:3a:
                    88:1b:40:07:30:9f:7a:46:dc:d6:96:27:0e:e2:a5:
                    9d:0f:3b:59:e4:1d:44:16:e0:9f:33:40:26:c7:6c:
                    9d:56:5a:65:b8:20:4c:9b:1f:c3:6a:5b:b0:a7:09:
                    59:25
                Exponent: 65537 (0x10001)
        Attributes:
            a0:00
    Signature Algorithm: sha256WithRSAEncryption
         0d:75:ad:55:3a:fb:7d:6b:6e:96:15:85:0c:36:e5:a5:d2:88:
         1b:4b:6b:53:e3:32:64:fd:ae:11:57:76:02:84:ca:65:54:47:
         83:6d:71:9a:53:4b:dd:80:f5:c6:1d:09:70:af:99:c4:42:59:
         c1:6b:0d:f3:d2:8d:da:26:db:0f:65:f9:e6:cf:19:4a:42:ba:
         f4:96:d9:c1:a7:54:e3:9b:88:b9:4f:60:ae:7e:98:ed:6c:cb:
         13:d5:b8:9c:2e:00:13:5d:a1:85:4e:a0:8f:39:8c:31:d1:52:
         6f:0c:0e:da:ae:de:45:50:e8:3e:dd:c0:0d:43:ab:e2:86:00:
         1d:55:be:a4:52:aa:12:e0:58:14:04:3a:39:52:ce:84:0b:32:
         3a:99:93:9c:81:54:97:24:0a:91:70:94:ca:ba:47:e5:a9:9a:
         07:f3:47:94:2a:c3:c1:b6:07:cf:24:17:fe:36:74:e4:e7:38:
         3f:3f:1f:e1:05:a5:a5:75:e5:19:8c:fe:9f:90:90:d3:c0:9f:
         6c:fc:db:bd:51:72:e7:79:d6:58:2e:08:68:25:b1:cc:86:fe:
         e4:d5:bd:e2:22:a1:d3:8b:95:68:1f:85:73:c4:44:69:5d:17:
         12:a3:7b:26:2a:6a:e0:87:ff:27:98:8b:1b:91:db:29:24:5b:
         14:77:4b:03
-----BEGIN CERTIFICATE REQUEST-----
MIICYDCCAUgCAQAwGzEZMBcGA1UEAwwQaWRwMS5leGFtcGxlLm9yZzCCASIwDQYJ
KoZIhvcNAQEBBQADggEPADCCAQoCggEBAJhmR/stWBwCuY1oqxZZ+GIZMfJQtQJa
uBzXxzMX7y5YLy9YoghddXyiFw614vKbrDKI3wOcgha6jOlspvVkEFxjjVdQPXb5
nDnNHAhd5L8PjoWcAMAk+W4sIuDYeslOKAhd8AwcotYt0I3ifOHwflRZmsQ9lV1e
XzM+qFQ78NddscpTKqtGnbsL/NE09MlnS6xtqK9SiuqDDFk3c2NzddUNlnxDo0AI
+xAcmO9ca4/PgBiZ49+mRpy9xniEoNrBoCInL7k5iUQC43AoZQV08NA6iBtABzCf
ekbc1pYnDuKlnQ87WeQdRBbgnzNAJsdsnVZaZbggTJsfw2pbsKcJWSUCAwEAAaAA
MA0GCSqGSIb3DQEBCwUAA4IBAQANda1VOvt9a26WFYUMNuWl0ogbS2tT4zJk/a4R
V3YChMplVEeDbXGaU0vdgPXGHQlwr5nEQlnBaw3z0o3aJtsPZfnmzxlKQrr0ltnB
p1Tjm4i5T2CufpjtbMsT1bicLgATXaGFTqCPOYwx0VJvDA7art5FUOg+3cANQ6vi
hgAdVb6kUqoS4FgUBDo5Us6ECzI6mZOcgVSXJAqRcJTKukflqZoH80eUKsPBtgfP
JBf+NnTk5zg/Px/hBaWldeUZjP6fkJDTwJ9s/Nu9UXLnedZYLghoJbHMhv7k1b3i
IqHTi5VoH4VzxERpXRcSo3smKmrgh/8nmIsbkdspJFsUd0sD
-----END CERTIFICATE REQUEST-----
