Certificate Request:
    Data:
        Version: 0 (0x0)
        Subject: CN=idp10.example.org
        Subject Public Key Info:
            Public Key Algorithm: rsaEncryption
                Public-Key: (2048 bit)
                Modulus:
                    00:92:6c:f6:d0:9b:55:8e:74:64:f6:ab:b1:a2:be:
                    f6:d0:3a:2e:05:18:c7:fb:36:a0:5f:c0:5c:01:9f:
                    42:03:a9:de:cc:bf:1d:38:b0:e0:2c:74:15:58:d8:
                    03:56:b0:87:9f:db:5d:05:46:82:f7:c3:0a:30:ba:
                    26:01:b7:6b:58:0d:69:7f:82:4d:9a:35:7b:0f:ec:
                    ec:6f:9f:e7:b0:f4:ef:3c:13:0f:cb:7b:1a:29:fe:
                    16:54:09:1f:e8:fa:76:24:54:a5:eb:3d:29:3b:ae:
                    c8:d5:80:a0:e2:e0:a3:29:04:96:f7:2f:14:b9:89:
                    34:6a:a1:01:48:34:37:e3:a2:1c:53:d2:fb:67:2c:
                    cf:60:e1:c4:7a:89:9d:60:bc:9b:1d:df:d0:11:cb:
                    0c:86:a5:18:ae:fa:00:1f:a3:27:77:16:0a:8d:80:
                    49:de:02:20:5a:9b:1c:c3:e1:0b:84:b9:b0:92:88:
                    54:51:bb:34:d6:37:5a:af:9d:0f:5c:cb:d9:25:52:
                    6d:f7:08:78:95:93:c8:f5:c5:be:a7:44:e1:ef:a0:
                    26:b3:5b:ee:8d:1f:85:01:73:c8:a8:8e:4f:73:a2:
                    ed:27:78:a1:ff:91:ec:c2:81:e9:62:e6:fe:f7:2d:
                    bb:c3:0e:fc:1e:8a:12:dd:fd:f7:d1:3d:1f:a9:0d:
                    31:c3
                Exponent: 65537 (0x10001)
        Attributes:
            a0:00
    Signature Algorithm: sha256WithRSAEncryption
         44:77:98:96:9b:78:6e:8c:18:b8:67:74:3d:62:8c:70:3d:04:
         76:66:a9:c4:84:c9:1c:75:33:bd:87:3f:9c:82:42:d3:1e:66:
         e7:e3:d4:af:ce:52:e9:b1:bb:8b:52:40:af:0c:26:b3:fa:fa:
         c1:75:7c:77:0b:8d:af:f2:d5:bd:73:c9:ae:2c:17:3f:ed:b6:
         ad:af:f2:38:46:df:58:22:92:7d:f0:9b:71:f2:54:af:18:c8:
         f3:9d:bf:e8:ad:41:3e:fe:52:a9:f6:57:53:46:ef:dd:86:70:
         43:0f:39:b6:1d:d6:51:df:0e:74:c0:6f:36:0d:ef:d0:07:01:
         90:3b:3a:a5:79:23:0e:ff:3a:85:50:27:c0:85:dc:b7:dc:73:
         dc:31:33:36:a7:d3:4d:1b:a7:c0:3a:fa:72:8b:ad:dc:61:1d:
         f2:38:03:4e:dd:4f:bb:ed:fd:e3:8f:59:6e:52:30:74:30:d9:
         f9:b2:b1:24:df:24:e1:c3:8b:db:52:04:28:e1:21:d0:35:49:
         22:38:ee:bc:6f:fe:4c:df:37:16:0e:de:6c:fe:77:fe:c2:81:
         cb:9f:e7:ac:14:d7:50:a9:61:92:f1:58:12:9b:65:8a:8c:e2:
         02:71:4c:f9:be:79:b6:a2:9a:d9:33:87:92:59:97:1b:e0:31:
         a0:a6:84:1d
-----BEGIN CERTIFICATE REQUEST-----
MIICYTCCAUkCAQAwHDEaMBgGA1UEAwwRaWRwMTAuZXhhbXBsZS5vcmcwggEiMA0G
CSqGSIb3DQEBAQUAA4IBDwAwggEKAoIBAQCSbPbQm1WOdGT2q7GivvbQOi4FGMf7
NqBfwFwBn0IDqd7Mvx04sOAsdBVY2ANWsIef210FRoL3wwowuiYBt2tYDWl/gk2a
NXsP7Oxvn+ew9O88Ew/Lexop/hZUCR/o+nYkVKXrPSk7rsjVgKDi4KMpBJb3LxS5
iTRqoQFINDfjohxT0vtnLM9g4cR6iZ1gvJsd39ARywyGpRiu+gAfoyd3FgqNgEne
AiBamxzD4QuEubCSiFRRuzTWN1qvnQ9cy9klUm33CHiVk8j1xb6nROHvoCazW+6N
H4UBc8iojk9zou0neKH/kezCgeli5v73LbvDDvweihLd/ffRPR+pDTHDAgMBAAGg
ADANBgkqhkiG9w0BAQsFAAOCAQEARHeYlpt4bowYuGd0PWKMcD0EdmapxITJHHUz
vYc/nIJC0x5m5+PUr85S6bG7i1JArwwms/r6wXV8dwuNr/LVvXPJriwXP+22ra/y
OEbfWCKSffCbcfJUrxjI852/6K1BPv5SqfZXU0bv3YZwQw85th3WUd8OdMBvNg3v
0AcBkDs6pXkjDv86hVAnwIXct9xz3DEzNqfTTRunwDr6cout3GEd8jgDTt1Pu+39
449ZblIwdDDZ+bKxJN8k4cOL21IEKOEh0DVJIjjuvG/+TN83Fg7ebP53/sKBy5/n
rBTXUKlhkvFYEptlioziAnFM+b55tqKa2TOHklmXG+AxoKaEHQ==
-----END CERTIFICATE REQUEST-----
