Certificate Request:
    Data:
        Version: 0 (0x0)
        Subject: CN=idp22.identinetics.com
        Subject Public Key Info:
            Public Key Algorithm: rsaEncryption
                Public-Key: (2048 bit)
                Modulus:
                    00:b9:5d:b4:49:14:f8:44:43:d9:77:24:30:0b:2b:
                    7d:6b:42:ed:1a:12:ef:0a:25:4d:0f:b1:94:0a:c7:
                    22:3f:3f:81:c7:23:b2:05:6e:db:dc:44:ab:61:f5:
                    77:4b:99:57:59:20:96:78:83:2f:f1:ef:03:24:34:
                    3e:4b:63:f7:ac:be:a9:33:8a:32:4d:04:6b:9b:5e:
                    a4:26:58:16:d7:9d:40:c0:94:57:34:d8:60:27:42:
                    c3:59:32:3c:96:71:21:20:32:d4:c0:b2:4c:bc:8c:
                    e0:0e:ef:0f:30:95:a2:0d:5e:9a:d7:eb:65:c6:21:
                    a3:49:63:6a:a1:32:63:17:4b:99:b4:55:e6:4b:fb:
                    3e:f7:e6:78:56:eb:96:c8:af:e9:59:89:f1:e1:9f:
                    d0:df:0f:43:d1:7e:32:46:8a:3c:f4:ad:6e:7b:47:
                    d2:ed:ee:11:55:fc:58:48:f8:19:49:51:77:13:7b:
                    c8:72:d2:57:6c:7e:ca:b0:98:4e:65:c9:88:f0:76:
                    ab:b5:66:68:43:3a:9b:fd:4e:3d:ef:1b:9b:32:47:
                    2f:7d:2c:e1:18:23:d5:64:ed:97:4d:fc:5e:af:e7:
                    bc:07:7d:18:d8:f3:17:f3:55:b2:8f:5a:44:88:ce:
                    59:74:6f:e7:f9:0e:90:3a:3e:8d:93:ad:bf:8d:5b:
                    cc:b7
                Exponent: 65537 (0x10001)
        Attributes:
            a0:00
    Signature Algorithm: sha256WithRSAEncryption
         18:7b:90:20:ef:a0:a0:91:14:8a:43:2a:ab:2d:84:2b:f2:02:
         03:af:1f:0d:1a:44:32:13:83:07:fd:a1:61:0b:09:5f:cd:17:
         c8:db:89:aa:32:56:cd:9e:28:e8:8f:ce:58:6b:54:8a:ea:8b:
         6a:d5:12:62:76:3a:76:63:8b:ef:c5:13:14:17:50:fc:c4:de:
         87:9c:b7:ae:0b:42:94:20:96:da:06:b6:f2:ca:dc:ca:91:36:
         a1:32:d4:fb:00:ef:18:b4:74:e7:85:32:e4:8d:50:65:48:e4:
         0b:7a:ff:ce:fa:db:9b:1c:4e:e4:23:09:c5:2c:4c:aa:ef:be:
         cb:92:94:fe:6e:77:1c:d3:f0:cb:26:c5:9a:b4:7a:35:47:26:
         6b:9e:dc:ef:23:3b:1d:4c:35:bf:c8:cd:f5:9c:90:c2:70:cb:
         4c:80:3d:b8:35:36:5a:5d:2a:b5:22:0c:5c:19:7a:38:f5:25:
         d5:d7:10:5c:32:5e:40:e5:d0:3a:f2:be:3b:c6:68:23:4c:69:
         51:04:51:b4:97:f3:4a:e5:fe:1b:c4:f9:91:04:86:d8:ae:f1:
         b0:3d:d1:a5:ff:b3:50:2d:ad:f5:ea:62:e1:16:12:44:48:f4:
         ac:0b:61:40:89:a8:32:6a:59:b9:fa:ad:5e:6b:c5:2c:4d:12:
         f2:dd:3e:ab
-----BEGIN CERTIFICATE REQUEST-----
MIICZjCCAU4CAQAwITEfMB0GA1UEAwwWaWRwMjIuaWRlbnRpbmV0aWNzLmNvbTCC
ASIwDQYJKoZIhvcNAQEBBQADggEPADCCAQoCggEBALldtEkU+ERD2XckMAsrfWtC
7RoS7wolTQ+xlArHIj8/gccjsgVu29xEq2H1d0uZV1kglniDL/HvAyQ0Pktj96y+
qTOKMk0Ea5tepCZYFtedQMCUVzTYYCdCw1kyPJZxISAy1MCyTLyM4A7vDzCVog1e
mtfrZcYho0ljaqEyYxdLmbRV5kv7PvfmeFbrlsiv6VmJ8eGf0N8PQ9F+MkaKPPSt
bntH0u3uEVX8WEj4GUlRdxN7yHLSV2x+yrCYTmXJiPB2q7VmaEM6m/1OPe8bmzJH
L30s4Rgj1WTtl038Xq/nvAd9GNjzF/NVso9aRIjOWXRv5/kOkDo+jZOtv41bzLcC
AwEAAaAAMA0GCSqGSIb3DQEBCwUAA4IBAQAYe5Ag76CgkRSKQyqrLYQr8gIDrx8N
GkQyE4MH/aFhCwlfzRfI24mqMlbNnijoj85Ya1SK6otq1RJidjp2Y4vvxRMUF1D8
xN6HnLeuC0KUIJbaBrbyytzKkTahMtT7AO8YtHTnhTLkjVBlSOQLev/O+tubHE7k
IwnFLEyq777LkpT+bncc0/DLJsWatHo1RyZrntzvIzsdTDW/yM31nJDCcMtMgD24
NTZaXSq1IgxcGXo49SXV1xBcMl5A5dA68r47xmgjTGlRBFG0l/NK5f4bxPmRBIbY
rvGwPdGl/7NQLa316mLhFhJESPSsC2FAiagyalm5+q1ea8UsTRLy3T6r
-----END CERTIFICATE REQUEST-----
