Certificate:
    Data:
        Version: 1 (0x0)
        Serial Number: 11 (0xb)
    Signature Algorithm: sha256WithRSAEncryption
        Issuer: CN=PVZD-Test-CA
        Validity
            Not Before: Nov 27 21:18:58 2018 GMT
            Not After : Jun 10 21:18:58 2039 GMT
        Subject: CN=idp6.example.com
        Subject Public Key Info:
            Public Key Algorithm: rsaEncryption
                Public-Key: (2048 bit)
                Modulus:
                    00:e1:bc:fc:cb:23:25:ab:b5:bf:83:d8:8d:91:36:
                    77:9c:40:fc:8f:4d:cb:40:4f:24:b6:19:39:a0:8d:
                    f2:72:3f:8e:3e:12:1b:14:61:0c:60:ee:89:1e:dd:
                    c8:b4:ec:f9:ca:b8:95:a7:5d:0a:e2:00:cf:8e:1a:
                    5c:c1:0a:78:98:8a:74:b1:4b:6c:a3:c4:6c:7d:2e:
                    9e:1b:a7:56:7f:51:e1:fc:b6:9a:6d:a8:5d:a3:ad:
                    97:b9:06:31:89:4e:2f:db:3c:10:7d:bc:58:54:ba:
                    a6:43:d2:66:4a:01:af:65:c8:b6:17:6c:a3:de:e2:
                    23:b4:b6:ca:5e:1a:98:7a:b1:99:27:ee:ac:c0:1d:
                    b6:15:da:3a:d0:aa:d3:d4:0f:26:5a:3c:ef:51:fc:
                    9e:45:58:27:6a:41:1f:20:0e:cf:c4:92:44:37:21:
                    60:c0:63:c0:c6:0e:21:43:34:8e:5c:3c:16:75:08:
                    ec:f2:4c:3e:a0:0b:76:ff:57:f5:16:92:0d:3a:0c:
                    01:28:f0:eb:15:f1:e6:23:0c:3f:f0:89:f6:de:36:
                    d2:72:af:54:6d:fd:9e:8a:ad:b8:a7:0d:d6:98:61:
                    67:2a:04:f5:48:60:1b:49:1c:b3:77:91:c6:33:cd:
                    86:8e:4c:16:b5:3e:41:90:51:5d:fc:08:0c:11:6f:
                    bc:23
                Exponent: 65537 (0x10001)
    Signature Algorithm: sha256WithRSAEncryption
         27:86:5e:70:06:44:88:41:0d:b1:c1:92:ee:78:1a:c1:ca:0d:
         3c:28:5b:6b:67:1e:a0:c6:1e:d4:e8:0b:81:14:b2:5d:48:0a:
         e9:8b:98:c0:47:28:10:ad:ee:99:d1:0e:3b:83:e1:38:88:b5:
         4e:8d:1e:d8:0e:a9:02:81:31:15:ec:bf:02:33:ab:81:56:22:
         47:73:da:e9:5a:21:a2:39:f4:92:46:30:fa:7e:38:cf:17:2d:
         a7:2f:4a:c4:92:89:ce:57:0e:5c:c9:ec:d0:16:8f:a9:ce:00:
         5e:2b:a5:1b:9a:7b:7f:c9:53:bf:c6:a6:28:28:41:6b:6f:26:
         c5:9b:e5:43:35:e7:b5:87:fd:04:67:c0:83:2a:93:0e:37:c9:
         96:1c:aa:e4:de:22:7b:5d:db:49:b0:df:46:3e:de:28:6b:fd:
         7a:1c:c5:30:66:c5:46:29:25:7f:9f:30:ea:8a:60:9d:57:45:
         c7:b0:9e:9d:18:1b:13:47:fa:60:44:16:27:ac:b7:2e:2e:5d:
         90:4a:da:bf:c9:0a:86:68:fe:d5:e7:fc:c5:b3:6e:b4:99:bd:
         8b:26:c6:e9:b5:ca:8b:e5:1b:fc:a4:26:2e:62:30:9d:e1:35:
         5a:ff:07:e9:6f:98:a9:d1:2d:33:c6:5b:b5:db:8d:c5:de:8d:
         f6:14:38:f1
-----BEGIN CERTIFICATE-----
MIICpjCCAY4CAQswDQYJKoZIhvcNAQELBQAwFzEVMBMGA1UEAwwMUFZaRC1UZXN0
LUNBMB4XDTE4MTEyNzIxMTg1OFoXDTM5MDYxMDIxMTg1OFowGzEZMBcGA1UEAwwQ
aWRwNi5leGFtcGxlLmNvbTCCASIwDQYJKoZIhvcNAQEBBQADggEPADCCAQoCggEB
AOG8/MsjJau1v4PYjZE2d5xA/I9Ny0BPJLYZOaCN8nI/jj4SGxRhDGDuiR7dyLTs
+cq4laddCuIAz44aXMEKeJiKdLFLbKPEbH0unhunVn9R4fy2mm2oXaOtl7kGMYlO
L9s8EH28WFS6pkPSZkoBr2XIthdso97iI7S2yl4amHqxmSfurMAdthXaOtCq09QP
Jlo871H8nkVYJ2pBHyAOz8SSRDchYMBjwMYOIUM0jlw8FnUI7PJMPqALdv9X9RaS
DToMASjw6xXx5iMMP/CJ9t420nKvVG39noqtuKcN1phhZyoE9UhgG0kcs3eRxjPN
ho5MFrU+QZBRXfwIDBFvvCMCAwEAATANBgkqhkiG9w0BAQsFAAOCAQEAJ4ZecAZE
iEENscGS7ngawcoNPChba2ceoMYe1OgLgRSyXUgK6YuYwEcoEK3umdEOO4PhOIi1
To0e2A6pAoExFey/AjOrgVYiR3Pa6Vohojn0kkYw+n44zxctpy9KxJKJzlcOXMns
0BaPqc4AXiulG5p7f8lTv8amKChBa28mxZvlQzXntYf9BGfAgyqTDjfJlhyq5N4i
e13bSbDfRj7eKGv9ehzFMGbFRiklf58w6opgnVdFx7CenRgbE0f6YEQWJ6y3Li5d
kErav8kKhmj+1ef8xbNutJm9iybG6bXKi+Ub/KQmLmIwneE1Wv8H6W+YqdEtM8Zb
tduNxd6N9hQ48Q==
-----END CERTIFICATE-----
