Certificate Request:
    Data:
        Version: 0 (0x0)
        Subject: CN=idp6.example.org
        Subject Public Key Info:
            Public Key Algorithm: rsaEncryption
                Public-Key: (2048 bit)
                Modulus:
                    00:be:07:17:c9:18:1f:b4:57:f5:33:84:bd:8e:71:
                    38:6c:20:24:59:66:44:ff:51:4e:d3:ac:f5:59:00:
                    3e:84:d0:95:7c:bc:a4:e5:3a:b2:4c:ae:6d:1c:d2:
                    36:84:ee:e3:1b:f5:f6:78:92:1b:98:36:26:2d:c8:
                    5a:66:ae:75:85:0c:0e:ff:81:36:ae:72:ee:06:23:
                    61:af:e6:5b:b2:19:6f:ee:d0:93:52:c5:f3:d8:96:
                    13:23:15:35:d3:bb:8e:7e:65:c2:55:3f:09:02:d1:
                    36:6c:79:1c:ae:33:e5:af:51:83:12:6c:f8:3f:0b:
                    f1:0a:e1:e3:78:db:54:58:c2:9e:7d:1a:23:f9:10:
                    3e:61:1d:88:34:b6:a9:1d:cf:d5:21:fe:90:ea:94:
                    77:8d:c6:05:40:3a:c0:95:bc:17:9d:d6:18:37:0b:
                    b1:eb:ee:d7:79:99:9e:3c:6e:51:a9:54:f3:20:c1:
                    9e:5f:d7:3e:79:df:46:f9:e0:d3:ee:48:a5:65:e2:
                    6f:83:36:a4:00:d7:75:b8:b5:d5:ee:80:66:fc:3a:
                    54:d8:1f:5b:fe:5f:4a:60:65:f6:de:8e:59:02:17:
                    a4:c9:52:23:c1:9a:a4:0d:18:04:5e:1e:d3:b9:f2:
                    5b:bf:63:c0:e8:f3:14:b6:90:54:22:18:51:52:f6:
                    35:21
                Exponent: 65537 (0x10001)
        Attributes:
            a0:00
    Signature Algorithm: sha256WithRSAEncryption
         4f:f2:74:6d:63:02:8c:d3:d4:63:5e:80:ac:c9:33:43:db:40:
         02:ba:bb:17:48:2e:cb:e9:d9:16:83:35:72:22:f0:0c:d4:15:
         ed:fd:8c:f6:a2:a7:df:a1:11:2d:8b:11:b5:94:ff:1b:bc:da:
         36:c2:54:08:33:bb:58:f6:3d:bd:76:da:8b:9f:68:1e:ac:61:
         d0:ed:75:69:11:7a:93:b7:e2:aa:f5:2a:e7:f3:68:37:fd:28:
         92:3d:7c:7b:51:22:94:e2:fb:61:72:a8:54:0e:22:84:c5:cb:
         a8:49:0e:e7:92:33:c8:5b:3f:22:41:0b:22:64:e4:55:03:d4:
         fe:2e:ba:2d:3c:ba:e3:66:0e:63:46:c0:37:d7:50:d3:3b:09:
         2f:ea:9a:9a:46:fa:97:da:56:86:3a:59:5a:7e:69:71:68:ad:
         eb:a8:ca:0e:cd:26:55:2c:d5:46:06:33:f4:04:d9:bc:34:1a:
         01:42:f5:ab:a7:b6:e6:2b:62:23:01:0d:01:98:f2:af:4b:31:
         ee:fe:6a:6c:40:21:66:be:bc:c2:ab:e5:13:c1:9a:6e:27:e9:
         96:b9:68:6f:70:42:60:c2:a8:52:1d:fc:d4:05:8a:0e:ae:df:
         26:fd:16:b7:ff:d0:a7:07:bc:13:19:0d:eb:13:03:ba:bf:b9:
         97:5d:c8:b8
-----BEGIN CERTIFICATE REQUEST-----
MIICYDCCAUgCAQAwGzEZMBcGA1UEAwwQaWRwNi5leGFtcGxlLm9yZzCCASIwDQYJ
KoZIhvcNAQEBBQADggEPADCCAQoCggEBAL4HF8kYH7RX9TOEvY5xOGwgJFlmRP9R
TtOs9VkAPoTQlXy8pOU6skyubRzSNoTu4xv19niSG5g2Ji3IWmaudYUMDv+BNq5y
7gYjYa/mW7IZb+7Qk1LF89iWEyMVNdO7jn5lwlU/CQLRNmx5HK4z5a9RgxJs+D8L
8Qrh43jbVFjCnn0aI/kQPmEdiDS2qR3P1SH+kOqUd43GBUA6wJW8F53WGDcLsevu
13mZnjxuUalU8yDBnl/XPnnfRvng0+5IpWXib4M2pADXdbi11e6AZvw6VNgfW/5f
SmBl9t6OWQIXpMlSI8GapA0YBF4e07nyW79jwOjzFLaQVCIYUVL2NSECAwEAAaAA
MA0GCSqGSIb3DQEBCwUAA4IBAQBP8nRtYwKM09RjXoCsyTND20ACursXSC7L6dkW
gzVyIvAM1BXt/Yz2oqffoREtixG1lP8bvNo2wlQIM7tY9j29dtqLn2gerGHQ7XVp
EXqTt+Kq9Srn82g3/SiSPXx7USKU4vthcqhUDiKExcuoSQ7nkjPIWz8iQQsiZORV
A9T+LrotPLrjZg5jRsA311DTOwkv6pqaRvqX2laGOllafmlxaK3rqMoOzSZVLNVG
BjP0BNm8NBoBQvWrp7bmK2IjAQ0BmPKvSzHu/mpsQCFmvrzCq+UTwZpuJ+mWuWhv
cEJgwqhSHfzUBYoOrt8m/Ra3/9CnB7wTGQ3rEwO6v7mXXci4
-----END CERTIFICATE REQUEST-----
