Certificate Request:
    Data:
        Version: 0 (0x0)
        Subject: CN=idp6.example.com
        Subject Public Key Info:
            Public Key Algorithm: rsaEncryption
                Public-Key: (2048 bit)
                Modulus:
                    00:e1:bc:fc:cb:23:25:ab:b5:bf:83:d8:8d:91:36:
                    77:9c:40:fc:8f:4d:cb:40:4f:24:b6:19:39:a0:8d:
                    f2:72:3f:8e:3e:12:1b:14:61:0c:60:ee:89:1e:dd:
                    c8:b4:ec:f9:ca:b8:95:a7:5d:0a:e2:00:cf:8e:1a:
                    5c:c1:0a:78:98:8a:74:b1:4b:6c:a3:c4:6c:7d:2e:
                    9e:1b:a7:56:7f:51:e1:fc:b6:9a:6d:a8:5d:a3:ad:
                    97:b9:06:31:89:4e:2f:db:3c:10:7d:bc:58:54:ba:
                    a6:43:d2:66:4a:01:af:65:c8:b6:17:6c:a3:de:e2:
                    23:b4:b6:ca:5e:1a:98:7a:b1:99:27:ee:ac:c0:1d:
                    b6:15:da:3a:d0:aa:d3:d4:0f:26:5a:3c:ef:51:fc:
                    9e:45:58:27:6a:41:1f:20:0e:cf:c4:92:44:37:21:
                    60:c0:63:c0:c6:0e:21:43:34:8e:5c:3c:16:75:08:
                    ec:f2:4c:3e:a0:0b:76:ff:57:f5:16:92:0d:3a:0c:
                    01:28:f0:eb:15:f1:e6:23:0c:3f:f0:89:f6:de:36:
                    d2:72:af:54:6d:fd:9e:8a:ad:b8:a7:0d:d6:98:61:
                    67:2a:04:f5:48:60:1b:49:1c:b3:77:91:c6:33:cd:
                    86:8e:4c:16:b5:3e:41:90:51:5d:fc:08:0c:11:6f:
                    bc:23
                Exponent: 65537 (0x10001)
        Attributes:
            a0:00
    Signature Algorithm: sha256WithRSAEncryption
         22:ce:a9:45:c8:78:f8:23:a4:fa:45:10:05:70:cc:9e:40:74:
         cc:8e:84:1b:64:84:a7:80:4f:4e:ac:01:b2:fa:d9:c0:24:91:
         c3:c8:61:7f:3e:f2:55:53:5a:1d:a6:f3:5d:a5:47:99:4b:2b:
         b5:a4:39:1a:99:4a:dc:15:de:98:11:72:b1:e8:d6:ba:d7:b3:
         5a:0e:bc:ba:fd:33:57:11:14:38:7d:48:c8:e3:f1:e4:be:ae:
         33:1c:ee:e4:da:b1:d4:68:d6:58:c1:a5:97:3a:af:4d:97:4f:
         1c:4a:21:13:5c:b3:93:1a:30:89:fd:5b:8d:1e:2d:c0:94:b3:
         b8:a8:1f:d4:d9:b1:27:8d:56:34:4e:e9:15:63:d3:7d:8c:2d:
         c7:38:b3:8d:c8:bd:c3:28:af:2a:f2:35:2f:fd:23:dc:b0:2a:
         2d:31:a4:93:d4:c6:fb:2a:21:32:7f:ee:f3:1a:3a:8a:12:ad:
         d9:b0:5b:93:12:1a:97:3d:61:bf:63:63:f9:5f:a3:21:12:81:
         a8:99:b3:04:aa:4c:da:b3:f3:a1:ff:14:bf:be:14:75:a4:5c:
         64:f7:84:f4:26:15:7a:80:bb:63:42:84:d3:59:f8:d9:bf:4b:
         db:ea:4f:28:20:ae:5b:a9:88:20:19:c3:af:18:29:3a:d1:3a:
         30:19:c6:36
-----BEGIN CERTIFICATE REQUEST-----
MIICYDCCAUgCAQAwGzEZMBcGA1UEAwwQaWRwNi5leGFtcGxlLmNvbTCCASIwDQYJ
KoZIhvcNAQEBBQADggEPADCCAQoCggEBAOG8/MsjJau1v4PYjZE2d5xA/I9Ny0BP
JLYZOaCN8nI/jj4SGxRhDGDuiR7dyLTs+cq4laddCuIAz44aXMEKeJiKdLFLbKPE
bH0unhunVn9R4fy2mm2oXaOtl7kGMYlOL9s8EH28WFS6pkPSZkoBr2XIthdso97i
I7S2yl4amHqxmSfurMAdthXaOtCq09QPJlo871H8nkVYJ2pBHyAOz8SSRDchYMBj
wMYOIUM0jlw8FnUI7PJMPqALdv9X9RaSDToMASjw6xXx5iMMP/CJ9t420nKvVG39
noqtuKcN1phhZyoE9UhgG0kcs3eRxjPNho5MFrU+QZBRXfwIDBFvvCMCAwEAAaAA
MA0GCSqGSIb3DQEBCwUAA4IBAQAizqlFyHj4I6T6RRAFcMyeQHTMjoQbZISngE9O
rAGy+tnAJJHDyGF/PvJVU1odpvNdpUeZSyu1pDkamUrcFd6YEXKx6Na617NaDry6
/TNXERQ4fUjI4/Hkvq4zHO7k2rHUaNZYwaWXOq9Nl08cSiETXLOTGjCJ/VuNHi3A
lLO4qB/U2bEnjVY0TukVY9N9jC3HOLONyL3DKK8q8jUv/SPcsCotMaST1Mb7KiEy
f+7zGjqKEq3ZsFuTEhqXPWG/Y2P5X6MhEoGombMEqkzas/Oh/xS/vhR1pFxk94T0
JhV6gLtjQoTTWfjZv0vb6k8oIK5bqYggGcOvGCk60TowGcY2
-----END CERTIFICATE REQUEST-----
