Certificate Request:
    Data:
        Version: 0 (0x0)
        Subject: CN=idp2.example.com
        Subject Public Key Info:
            Public Key Algorithm: rsaEncryption
                Public-Key: (2048 bit)
                Modulus:
                    00:b7:f2:a0:93:30:19:12:c6:87:e1:01:ae:01:f9:
                    53:74:4f:6c:d9:3e:37:25:95:22:d2:41:7c:0d:1e:
                    6a:58:9b:ea:1d:03:17:1c:bd:ec:55:1b:f7:22:66:
                    10:40:50:f6:2f:7c:7d:07:20:c6:ab:44:ca:ae:4e:
                    fd:79:01:59:c1:d6:32:01:e1:41:69:71:0c:98:0c:
                    63:db:76:9c:c3:e7:a9:8d:ef:67:81:5c:f8:d6:16:
                    00:13:75:84:60:c2:46:0d:a9:c7:77:e8:c4:b3:06:
                    ac:08:ba:5f:8d:f4:e4:ec:e7:cf:6d:82:8f:42:1d:
                    dc:65:22:81:fd:cf:62:00:01:33:cc:d5:67:8c:3a:
                    3e:37:f6:d5:8f:55:2d:21:94:b5:be:83:db:d2:da:
                    9b:c1:e0:02:7b:7e:83:b2:d8:4b:ec:3e:8b:c5:6f:
                    79:c1:bb:4c:0c:9e:6d:66:d6:52:b6:a1:05:2d:ae:
                    66:4d:d4:cf:91:38:49:cb:18:60:28:d8:0c:f1:e5:
                    ea:92:d8:86:ae:2b:49:cf:ed:c8:f8:17:43:90:bf:
                    6b:a9:94:e8:e8:2c:b7:a6:34:22:84:82:8b:d4:46:
                    36:c3:05:f4:41:70:91:b1:06:ad:3a:aa:2d:b8:9a:
                    af:cd:cc:91:34:d1:c6:e9:5b:e9:c0:1a:01:27:3a:
                    52:13
                Exponent: 65537 (0x10001)
        Attributes:
            a0:00
    Signature Algorithm: sha256WithRSAEncryption
         35:0d:0b:f6:9c:71:8d:70:cb:96:98:8a:93:07:6f:af:85:30:
         1a:69:98:36:4c:9b:a0:ec:20:5e:7a:74:66:fd:ef:03:1e:72:
         ba:da:5a:64:9c:b5:f5:c8:de:28:be:a7:6f:82:80:0f:b0:4b:
         5f:7b:ac:59:58:cf:f0:a4:92:22:df:73:cb:94:69:ac:e6:da:
         0d:ec:2c:c1:5e:71:17:e1:e1:48:8d:1f:6a:95:25:3a:bb:37:
         e1:5f:e7:3b:af:6d:66:36:04:b2:d8:c8:e5:10:9c:cf:d0:7d:
         1c:a3:b7:aa:33:25:c2:fd:1f:24:97:8c:df:53:ca:f5:5a:71:
         1b:87:2a:54:91:68:37:9c:f6:d3:91:fe:b7:47:17:af:33:16:
         9b:d3:35:74:00:49:c0:01:bb:79:5c:e1:09:d6:a5:87:57:da:
         67:3b:d1:0a:93:56:22:f1:f1:b7:ee:84:26:35:9a:22:00:e4:
         d2:08:b4:5a:51:68:ae:19:37:bc:08:cf:35:c0:30:6e:c4:a5:
         5f:4e:46:dd:5e:eb:d3:3d:45:94:86:87:d9:70:13:57:e3:9d:
         8a:5c:87:59:70:b8:3c:52:6f:c3:ac:36:1a:53:ce:a8:03:3a:
         c2:ca:ac:71:24:c7:97:c1:cf:fc:0b:09:c6:86:13:f2:25:3c:
         77:4a:7b:44
-----BEGIN CERTIFICATE REQUEST-----
MIICYDCCAUgCAQAwGzEZMBcGA1UEAwwQaWRwMi5leGFtcGxlLmNvbTCCASIwDQYJ
KoZIhvcNAQEBBQADggEPADCCAQoCggEBALfyoJMwGRLGh+EBrgH5U3RPbNk+NyWV
ItJBfA0ealib6h0DFxy97FUb9yJmEEBQ9i98fQcgxqtEyq5O/XkBWcHWMgHhQWlx
DJgMY9t2nMPnqY3vZ4Fc+NYWABN1hGDCRg2px3foxLMGrAi6X4305Oznz22Cj0Id
3GUigf3PYgABM8zVZ4w6Pjf21Y9VLSGUtb6D29Lam8HgAnt+g7LYS+w+i8VvecG7
TAyebWbWUrahBS2uZk3Uz5E4ScsYYCjYDPHl6pLYhq4rSc/tyPgXQ5C/a6mU6Ogs
t6Y0IoSCi9RGNsMF9EFwkbEGrTqqLbiar83MkTTRxulb6cAaASc6UhMCAwEAAaAA
MA0GCSqGSIb3DQEBCwUAA4IBAQA1DQv2nHGNcMuWmIqTB2+vhTAaaZg2TJug7CBe
enRm/e8DHnK62lpknLX1yN4ovqdvgoAPsEtfe6xZWM/wpJIi33PLlGms5toN7CzB
XnEX4eFIjR9qlSU6uzfhX+c7r21mNgSy2MjlEJzP0H0co7eqMyXC/R8kl4zfU8r1
WnEbhypUkWg3nPbTkf63RxevMxab0zV0AEnAAbt5XOEJ1qWHV9pnO9EKk1Yi8fG3
7oQmNZoiAOTSCLRaUWiuGTe8CM81wDBuxKVfTkbdXuvTPUWUhofZcBNX452KXIdZ
cLg8Um/DrDYaU86oAzrCyqxxJMeXwc/8CwnGhhPyJTx3SntE
-----END CERTIFICATE REQUEST-----
