Certificate:
    Data:
        Version: 1 (0x0)
        Serial Number: 2 (0x2)
    Signature Algorithm: sha256WithRSAEncryption
        Issuer: CN=PVZD-Alien-Test-CA2
        Validity
            Not Before: Nov 26 21:00:35 2018 GMT
            Not After : Nov 23 21:00:35 2028 GMT
        Subject: CN=idp2.example.com
        Subject Public Key Info:
            Public Key Algorithm: rsaEncryption
                Public-Key: (2048 bit)
                Modulus:
                    00:b7:f2:a0:93:30:19:12:c6:87:e1:01:ae:01:f9:
                    53:74:4f:6c:d9:3e:37:25:95:22:d2:41:7c:0d:1e:
                    6a:58:9b:ea:1d:03:17:1c:bd:ec:55:1b:f7:22:66:
                    10:40:50:f6:2f:7c:7d:07:20:c6:ab:44:ca:ae:4e:
                    fd:79:01:59:c1:d6:32:01:e1:41:69:71:0c:98:0c:
                    63:db:76:9c:c3:e7:a9:8d:ef:67:81:5c:f8:d6:16:
                    00:13:75:84:60:c2:46:0d:a9:c7:77:e8:c4:b3:06:
                    ac:08:ba:5f:8d:f4:e4:ec:e7:cf:6d:82:8f:42:1d:
                    dc:65:22:81:fd:cf:62:00:01:33:cc:d5:67:8c:3a:
                    3e:37:f6:d5:8f:55:2d:21:94:b5:be:83:db:d2:da:
                    9b:c1:e0:02:7b:7e:83:b2:d8:4b:ec:3e:8b:c5:6f:
                    79:c1:bb:4c:0c:9e:6d:66:d6:52:b6:a1:05:2d:ae:
                    66:4d:d4:cf:91:38:49:cb:18:60:28:d8:0c:f1:e5:
                    ea:92:d8:86:ae:2b:49:cf:ed:c8:f8:17:43:90:bf:
                    6b:a9:94:e8:e8:2c:b7:a6:34:22:84:82:8b:d4:46:
                    36:c3:05:f4:41:70:91:b1:06:ad:3a:aa:2d:b8:9a:
                    af:cd:cc:91:34:d1:c6:e9:5b:e9:c0:1a:01:27:3a:
                    52:13
                Exponent: 65537 (0x10001)
    Signature Algorithm: sha256WithRSAEncryption
         27:ac:fc:1f:67:1a:23:01:47:e8:fb:4e:fc:77:d9:1f:1b:7c:
         c2:07:14:dc:1d:17:11:7f:75:8a:b7:6d:76:ec:a7:41:53:9a:
         7b:2b:c3:a9:4d:91:d6:2d:8a:44:60:e5:d2:1b:c7:6e:4b:f7:
         3e:82:1c:59:eb:03:87:aa:72:ed:7b:8a:c2:b0:f2:33:1c:54:
         c9:e3:68:94:07:a3:f2:4c:94:a9:88:a8:c0:df:02:5f:34:72:
         31:23:64:a3:6f:0f:11:27:91:39:e0:f5:4c:77:31:2b:c3:f4:
         59:a5:ab:85:28:a6:5d:57:5e:44:6f:06:7b:18:8d:1a:b7:c9:
         3e:4a:96:6f:fb:dd:a1:76:29:ec:e5:7a:09:52:05:58:9b:68:
         e4:8e:03:e8:4f:72:5f:53:e2:83:32:9d:ea:64:63:19:a4:43:
         ed:43:45:64:10:7e:e6:6a:2a:71:b6:75:47:a2:67:45:f0:87:
         01:31:36:5a:f6:16:66:84:b8:9f:63:9a:84:0b:0f:02:04:ea:
         9f:a4:1c:43:c4:30:67:06:43:78:b8:2f:8b:f4:87:59:bd:b0:
         89:e9:ab:49:36:a0:27:6f:38:3c:29:6b:c6:06:ab:9e:65:a0:
         1b:be:5c:fc:8e:44:51:3c:22:46:6c:2f:81:c3:94:d3:e0:d1:
         c7:76:1a:ee
-----BEGIN CERTIFICATE-----
MIICrTCCAZUCAQIwDQYJKoZIhvcNAQELBQAwHjEcMBoGA1UEAwwTUFZaRC1BbGll
bi1UZXN0LUNBMjAeFw0xODExMjYyMTAwMzVaFw0yODExMjMyMTAwMzVaMBsxGTAX
BgNVBAMMEGlkcDIuZXhhbXBsZS5jb20wggEiMA0GCSqGSIb3DQEBAQUAA4IBDwAw
ggEKAoIBAQC38qCTMBkSxofhAa4B+VN0T2zZPjcllSLSQXwNHmpYm+odAxccvexV
G/ciZhBAUPYvfH0HIMarRMquTv15AVnB1jIB4UFpcQyYDGPbdpzD56mN72eBXPjW
FgATdYRgwkYNqcd36MSzBqwIul+N9OTs589tgo9CHdxlIoH9z2IAATPM1WeMOj43
9tWPVS0hlLW+g9vS2pvB4AJ7foOy2EvsPovFb3nBu0wMnm1m1lK2oQUtrmZN1M+R
OEnLGGAo2Azx5eqS2IauK0nP7cj4F0OQv2uplOjoLLemNCKEgovURjbDBfRBcJGx
Bq06qi24mq/NzJE00cbpW+nAGgEnOlITAgMBAAEwDQYJKoZIhvcNAQELBQADggEB
ACes/B9nGiMBR+j7Tvx32R8bfMIHFNwdFxF/dYq3bXbsp0FTmnsrw6lNkdYtikRg
5dIbx25L9z6CHFnrA4eqcu17isKw8jMcVMnjaJQHo/JMlKmIqMDfAl80cjEjZKNv
DxEnkTng9Ux3MSvD9Fmlq4Uopl1XXkRvBnsYjRq3yT5Klm/73aF2KezleglSBVib
aOSOA+hPcl9T4oMynepkYxmkQ+1DRWQQfuZqKnG2dUeiZ0XwhwExNlr2FmaEuJ9j
moQLDwIE6p+kHEPEMGcGQ3i4L4v0h1m9sInpq0k2oCdvODwpa8YGq55loBu+XPyO
RFE8IkZsL4HDlNPg0cd2Gu4=
-----END CERTIFICATE-----
