Certificate:
    Data:
        Version: 1 (0x0)
        Serial Number: 1 (0x1)
    Signature Algorithm: sha256WithRSAEncryption
        Issuer: CN=PVZD-Alien-Test-CA2
        Validity
            Not Before: Nov 26 20:56:27 2018 GMT
            Not After : Jun  9 20:56:27 2039 GMT
        Subject: CN=PVZD-Alien-Test-CA2
        Subject Public Key Info:
            Public Key Algorithm: rsaEncryption
                Public-Key: (2048 bit)
                Modulus:
                    00:cc:25:7c:7f:a9:e0:45:27:41:31:42:cd:20:dc:
                    bb:e8:27:4d:69:20:1a:4b:64:0a:95:f1:fc:e4:d9:
                    43:49:41:73:ca:a1:4f:14:31:52:63:7b:77:59:c0:
                    53:f0:74:4a:03:2a:57:c4:c5:38:1f:1b:de:31:96:
                    35:fe:d0:30:d0:a6:06:ac:d6:6a:aa:94:ec:a5:c6:
                    29:c6:64:fa:49:41:d5:76:53:86:fd:e4:c1:a3:99:
                    8a:e5:bb:81:5c:42:de:56:0e:03:4f:4d:d7:94:05:
                    11:73:94:9e:62:12:2f:91:63:f7:75:42:38:b6:d2:
                    0c:cd:24:ac:17:20:f5:3e:3c:b4:4d:b7:2a:5f:fc:
                    4d:9d:aa:2e:b4:1b:f3:18:10:7f:1a:9a:f1:75:c2:
                    22:68:e3:c9:33:9f:62:82:19:1c:d0:12:91:57:9e:
                    29:c4:4f:c6:58:39:e3:7f:5d:83:30:a4:a2:5f:b3:
                    2d:b7:61:ff:80:14:1d:12:a8:83:ef:ad:64:05:4e:
                    54:d0:8a:a8:e7:01:43:dd:ab:29:a9:ec:53:8e:85:
                    f5:bc:72:66:5b:d3:f4:16:78:67:cf:e8:c9:bf:23:
                    5f:41:b6:eb:2d:5d:ab:13:5a:4c:6d:6d:9f:a7:ce:
                    ec:1b:16:83:d3:b4:da:a6:65:04:0f:5c:47:14:12:
                    ac:e5
                Exponent: 65537 (0x10001)
    Signature Algorithm: sha256WithRSAEncryption
         62:ec:28:25:c6:29:95:35:7c:fa:5e:7e:c6:68:4a:66:ba:64:
         00:9f:f1:2b:65:7d:c4:a9:7f:c5:3d:0a:b7:43:c6:ea:5a:fa:
         74:fe:c4:14:a8:0f:76:c2:1c:bb:95:dc:ea:3c:56:c6:06:d0:
         f5:09:ae:f3:b8:bf:42:e6:e0:86:67:bd:bd:32:c9:19:19:69:
         d5:ba:82:29:79:67:0d:ef:d9:f1:2a:e5:ac:69:cd:e4:fb:6a:
         81:fc:12:35:b1:30:46:e7:79:ca:47:1a:be:ab:79:c8:be:ab:
         3b:8b:cb:8d:c7:fa:0c:1e:59:be:84:9d:65:80:3e:08:36:c6:
         90:e0:08:72:f3:47:cb:08:94:89:9e:a5:56:f3:1a:32:96:2a:
         a0:95:20:7b:3b:31:a0:b0:ca:48:22:77:2d:50:e0:6e:d1:a6:
         13:36:1b:98:27:e7:0f:20:ed:33:29:ec:10:9c:c1:c5:58:c7:
         9f:83:e8:f6:5d:fd:75:52:7e:49:9b:56:c1:a1:8b:af:89:f8:
         9f:db:0a:31:b2:c8:d8:18:23:a3:4f:d6:3c:53:79:84:a3:37:
         c5:5e:39:88:26:16:dd:d4:6e:9f:76:ce:09:04:d3:ca:21:bd:
         86:fc:64:99:48:95:61:24:d4:c3:a1:70:1a:25:a3:55:4c:2a:
         b1:03:64:66
-----BEGIN CERTIFICATE-----
MIICsDCCAZgCAQEwDQYJKoZIhvcNAQELBQAwHjEcMBoGA1UEAwwTUFZaRC1BbGll
bi1UZXN0LUNBMjAeFw0xODExMjYyMDU2MjdaFw0zOTA2MDkyMDU2MjdaMB4xHDAa
BgNVBAMME1BWWkQtQWxpZW4tVGVzdC1DQTIwggEiMA0GCSqGSIb3DQEBAQUAA4IB
DwAwggEKAoIBAQDMJXx/qeBFJ0ExQs0g3LvoJ01pIBpLZAqV8fzk2UNJQXPKoU8U
MVJje3dZwFPwdEoDKlfExTgfG94xljX+0DDQpgas1mqqlOylxinGZPpJQdV2U4b9
5MGjmYrlu4FcQt5WDgNPTdeUBRFzlJ5iEi+RY/d1Qji20gzNJKwXIPU+PLRNtypf
/E2dqi60G/MYEH8amvF1wiJo48kzn2KCGRzQEpFXninET8ZYOeN/XYMwpKJfsy23
Yf+AFB0SqIPvrWQFTlTQiqjnAUPdqymp7FOOhfW8cmZb0/QWeGfP6Mm/I19Btust
XasTWkxtbZ+nzuwbFoPTtNqmZQQPXEcUEqzlAgMBAAEwDQYJKoZIhvcNAQELBQAD
ggEBAGLsKCXGKZU1fPpefsZoSma6ZACf8StlfcSpf8U9CrdDxupa+nT+xBSoD3bC
HLuV3Oo8VsYG0PUJrvO4v0Lm4IZnvb0yyRkZadW6gil5Zw3v2fEq5axpzeT7aoH8
EjWxMEbnecpHGr6reci+qzuLy43H+gweWb6EnWWAPgg2xpDgCHLzR8sIlImepVbz
GjKWKqCVIHs7MaCwykgidy1Q4G7RphM2G5gn5w8g7TMp7BCcwcVYx5+D6PZd/XVS
fkmbVsGhi6+J+J/bCjGyyNgYI6NP1jxTeYSjN8VeOYgmFt3Ubp92zgkE08ohvYb8
ZJlIlWEk1MOhcBolo1VMKrEDZGY=
-----END CERTIFICATE-----
